
Image.out:     file format elf32-littlearm


Disassembly of section .text:

00000000 <g_pfnVectors>:

const piniod_t __input_pins [] = INPUT_PIN_LIST;

void pin_sensor_init () { __pinsen_setedge_irq; }

void pin_sensor_read (word st, const byte *junk, address val) {
       0:	20005000 	andcs	r5, r0, r0

	const piniod_t *p;
	word i;
	byte v;

	if (val == NULL) {
       4:	00001c05 	andeq	r1, r0, r5, lsl #24
		// Called to issue a wait request
		if (st == WNONE)
       8:	00001bff 	strdeq	r1, [r0], -pc	; <UNPREDICTABLE>
       c:	00001c01 	andeq	r1, r0, r1, lsl #24
			// Make sure this is not WNONE
			return;
		cli;
		__pinsen_clear_and_enable;
      10:	00001c03 	andeq	r1, r0, r3, lsl #24
      14:	00001c03 	andeq	r1, r0, r3, lsl #24
		when (&__input_pins, st);
      18:	00001c03 	andeq	r1, r0, r3, lsl #24
	...
	}

	*val = 0;
	for (i = 0, p = __input_pins;
	    	    i < sizeof (__input_pins) / sizeof (piniod_t); i++, p++)
		*val |= __port_in_value (p) << i;
      2c:	00001c03 	andeq	r1, r0, r3, lsl #24
    ASSERT( dioNumberLegal( dioNumber ));

    //
    // Return the input value from the specified DIO.
    //
    return (( HWREG( GPIO_BASE + GPIO_O_DIN31_0 ) >> dioNumber ) & 1 );
      30:	00001c03 	andeq	r1, r0, r3, lsl #24
      34:	00000000 	andeq	r0, r0, r0
      38:	00001c03 	andeq	r1, r0, r3, lsl #24
      3c:	00001c03 	andeq	r1, r0, r3, lsl #24
      40:	00000979 	andeq	r0, r0, r9, ror r9
	for (i = 0, p = __input_pins;
      44:	00001c03 	andeq	r1, r0, r3, lsl #24
      48:	00001c03 	andeq	r1, r0, r3, lsl #24
      4c:	00001c03 	andeq	r1, r0, r3, lsl #24
}
      50:	00000551 	andeq	r0, r0, r1, asr r5
      54:	00000839 	andeq	r0, r0, r9, lsr r8
	if (!button_still_pressed (__button_list [pbutton]))
		goto Done;

	if (BUTTON_REPEAT (__button_list [pbutton])) {
		// Wait for repeat
		delay (BUTTON_REPEAT_DELAY, BU_LOOP);
      58:	00001c03 	andeq	r1, r0, r3, lsl #24
		release;
      5c:	00001c03 	andeq	r1, r0, r3, lsl #24
	    pbutton++) {
      60:	00001c03 	andeq	r1, r0, r3, lsl #24
	if (!button_still_pressed (__button_list [pbutton]))
      64:	000025e9 	andeq	r2, r0, r9, ror #11
      68:	00001c03 	andeq	r1, r0, r3, lsl #24
      6c:	00001c03 	andeq	r1, r0, r3, lsl #24
      70:	00001c03 	andeq	r1, r0, r3, lsl #24
      74:	00001c03 	andeq	r1, r0, r3, lsl #24
      78:	00001c03 	andeq	r1, r0, r3, lsl #24
	if (BUTTON_REPEAT (__button_list [pbutton])) {
      7c:	00001c03 	andeq	r1, r0, r3, lsl #24
      80:	00001c03 	andeq	r1, r0, r3, lsl #24
		delay (BUTTON_REPEAT_DELAY, BU_LOOP);
      84:	00001c03 	andeq	r1, r0, r3, lsl #24
      88:	00001c03 	andeq	r1, r0, r3, lsl #24
	} else
		goto Debounce;

  entry (BU_LOOP)

	if (!button_still_pressed (__button_list [pbutton]))
      8c:	00001c03 	andeq	r1, r0, r3, lsl #24
      90:	00001c03 	andeq	r1, r0, r3, lsl #24
      94:	00001c03 	andeq	r1, r0, r3, lsl #24
      98:	00001c03 	andeq	r1, r0, r3, lsl #24
      9c:	00001c03 	andeq	r1, r0, r3, lsl #24
      a0:	00001c03 	andeq	r1, r0, r3, lsl #24
		goto Done;

	if (baction == NULL)
      a4:	00001c03 	andeq	r1, r0, r3, lsl #24
      a8:	00001c03 	andeq	r1, r0, r3, lsl #24
		goto Term;

	(*baction) (pbutton);

	delay (BUTTON_REPEAT_INTERVAL, BU_LOOP);
      ac:	00001c03 	andeq	r1, r0, r3, lsl #24

endthread
      b0:	00001c03 	andeq	r1, r0, r3, lsl #24
	delay (BUTTON_REPEAT_INTERVAL, BU_LOOP);
      b4:	00001c03 	andeq	r1, r0, r3, lsl #24
      b8:	00001c03 	andeq	r1, r0, r3, lsl #24
endthread
      bc:	00001c03 	andeq	r1, r0, r3, lsl #24
      c0:	00001c03 	andeq	r1, r0, r3, lsl #24
      c4:	00001c03 	andeq	r1, r0, r3, lsl #24

000000c8 <receiver>:
int sfd;

/* 
 *  Purpose: Define a finiste state machine for receiving and processing messages.
*/
fsm receiver {
      c8:	b507      	push	{r0, r1, r2, lr}
      ca:	2804      	cmp	r0, #4
      cc:	d840      	bhi.n	150 <_Min_Stack_Size+0x50>
      ce:	e8df f000 	tbb	[pc, r0]
      d2:	211a0a03 	tstcs	sl, r3, lsl #20
      d6:	4b200025 	blmi	800172 <__ccfg+0x7e01ca>
    /*
     * Purpose: State for waiting to receive a packet
    */
    state Receiving:
        // Receive a packet
        packet = tcv_rnp(Receiving, sfd);
      da:	2000      	movs	r0, #0
      dc:	6819      	ldr	r1, [r3, #0]
      de:	f001 fba5 	bl	182c <tcv_rnp>
      e2:	4b1f      	ldr	r3, [pc, #124]	; (160 <_Min_Stack_Size+0x60>)
      e4:	6018      	str	r0, [r3, #0]
    /*
     * Purpose:  State for processing a received message.
    */
    state Receive_Msg:
        //Get the pointer to the received message
        receivedPtr = (struct msg *)(packet + 1);
      e6:	4b1e      	ldr	r3, [pc, #120]	; (160 <_Min_Stack_Size+0x60>)
      e8:	4a1e      	ldr	r2, [pc, #120]	; (164 <_Min_Stack_Size+0x64>)
      ea:	681b      	ldr	r3, [r3, #0]
      ec:	1c99      	adds	r1, r3, #2
      ee:	6011      	str	r1, [r2, #0]

        // Check if the message is directed to this node
        if(receivedPtr->receiverId == nodeId) {
      f0:	4a1d      	ldr	r2, [pc, #116]	; (168 <_Min_Stack_Size+0x68>)
      f2:	78db      	ldrb	r3, [r3, #3]
      f4:	7812      	ldrb	r2, [r2, #0]
      f6:	429a      	cmp	r2, r3
      f8:	d124      	bne.n	144 <_Min_Stack_Size+0x44>
            proceed Direct; // Proceed to handling direct message
      fa:	2002      	movs	r0, #2
        } else if (receivedPtr->receiverId == '0' || receivedPtr->receiverId == 0) {
            proceed Broadcast; // Proceed to handling broadcast message
      fc:	f000 ffc4 	bl	1088 <proceed>
        }
        // Continue receiving if message is not for this node
        proceed Receiving;
     100:	2000      	movs	r0, #0
     102:	f000 ffc1 	bl	1088 <proceed>
    
    /*
     * Purpose: State for handling a direct message.
    */
    state Direct:
        ser_outf(Receive_Msg, "Message ");
     106:	2001      	movs	r0, #1
     108:	4918      	ldr	r1, [pc, #96]	; (16c <_Min_Stack_Size+0x6c>)
     10a:	f001 fe57 	bl	1dbc <ser_outf>
        proceed Show_Message;
     10e:	2004      	movs	r0, #4
     110:	f000 ffba 	bl	1088 <proceed>
    
    /*
     * Purpose: State for handling a broadcast message.
    */
    state Broadcast:
        ser_outf(Broadcast, "Broadcast ");
     114:	2003      	movs	r0, #3
     116:	4916      	ldr	r1, [pc, #88]	; (170 <_Min_Stack_Size+0x70>)
     118:	f001 fe50 	bl	1dbc <ser_outf>

    /*
     * Purpose: State for displaying the received message.
    */
    state Show_Message:
        ser_outf(Show_Message, "Message from node %d (Seq %d): %s\n\r", receivedPtr->senderId, receivedPtr->sequenceNumber, receivedPtr->payload);
     11c:	4b11      	ldr	r3, [pc, #68]	; (164 <_Min_Stack_Size+0x64>)
     11e:	2004      	movs	r0, #4
     120:	6819      	ldr	r1, [r3, #0]
     122:	788b      	ldrb	r3, [r1, #2]
     124:	f811 2b03 	ldrb.w	r2, [r1], #3
     128:	9100      	str	r1, [sp, #0]
     12a:	4912      	ldr	r1, [pc, #72]	; (174 <_Min_Stack_Size+0x74>)
     12c:	f001 fe46 	bl	1dbc <ser_outf>
        tcv_endp(packet);
     130:	4b0b      	ldr	r3, [pc, #44]	; (160 <_Min_Stack_Size+0x60>)
     132:	6818      	ldr	r0, [r3, #0]
     134:	f001 fad0 	bl	16d8 <tcv_endp>
        // Return to receiving state for more messages
        proceed Receiving;
     138:	2000      	movs	r0, #0
}
     13a:	b003      	add	sp, #12
     13c:	f85d eb04 	ldr.w	lr, [sp], #4
        proceed Receiving;
     140:	f000 bfa2 	b.w	1088 <proceed>
        } else if (receivedPtr->receiverId == '0' || receivedPtr->receiverId == 0) {
     144:	2b30      	cmp	r3, #48	; 0x30
     146:	d001      	beq.n	14c <_Min_Stack_Size+0x4c>
     148:	2b00      	cmp	r3, #0
     14a:	d1d9      	bne.n	100 <_Min_Stack_Size>
            proceed Broadcast; // Proceed to handling broadcast message
     14c:	2003      	movs	r0, #3
     14e:	e7d5      	b.n	fc <receiver+0x34>
}
     150:	b003      	add	sp, #12
     152:	f85d eb04 	ldr.w	lr, [sp], #4
     156:	f000 bf0f 	b.w	f78 <__pi_badstate>
     15a:	bf00      	nop
     15c:	20000120 	andcs	r0, r0, r0, lsr #2
     160:	2000010c 	andcs	r0, r0, ip, lsl #2
     164:	20000114 	andcs	r0, r0, r4, lsl r1
     168:	20000108 	andcs	r0, r0, r8, lsl #2
     16c:	0000415c 	andeq	r4, r0, ip, asr r1
     170:	00004165 	andeq	r4, r0, r5, ror #2
     174:	00004170 	andeq	r4, r0, r0, ror r1

00000178 <send>:

/*
 * Purpose: Finite state machine for sending messages.
*/
fsm send(struct msg * ptr) {
     178:	b570      	push	{r4, r5, r6, lr}
     17a:	4605      	mov	r5, r0
     17c:	bb30      	cbnz	r0, 1cc <send+0x54>
     17e:	4b15      	ldr	r3, [pc, #84]	; (1d4 <send+0x5c>)
    /*
     * Purpose: State for sending a message.
    */
    state Send_Msg:
        // Create a new packet to send
        address spkt = tcv_wnp(Send_Msg, sfd, sizeof(struct msg) + 4);
     180:	4915      	ldr	r1, [pc, #84]	; (1d8 <send+0x60>)
fsm send(struct msg * ptr) {
     182:	681b      	ldr	r3, [r3, #0]
        address spkt = tcv_wnp(Send_Msg, sfd, sizeof(struct msg) + 4);
     184:	2222      	movs	r2, #34	; 0x22
fsm send(struct msg * ptr) {
     186:	689e      	ldr	r6, [r3, #8]
        address spkt = tcv_wnp(Send_Msg, sfd, sizeof(struct msg) + 4);
     188:	6809      	ldr	r1, [r1, #0]
     18a:	4603      	mov	r3, r0
     18c:	f001 fb8e 	bl	18ac <tcv_wnps>
     190:	4604      	mov	r4, r0
        
        // Initialize the packet
        spkt [0] = 0;
     192:	8005      	strh	r5, [r0, #0]
        byte * p = (byte*)(spkt + 1);

        // Populate the packet with message data
        *p = ptr->senderId; p++;
     194:	7833      	ldrb	r3, [r6, #0]
        *p = ptr->receiverId; p++;
        *p = ptr->sequenceNumber; p++;
        strcpy(p, ptr->payload);
     196:	1cf1      	adds	r1, r6, #3
        *p = ptr->senderId; p++;
     198:	7083      	strb	r3, [r0, #2]
        *p = ptr->receiverId; p++;
     19a:	7873      	ldrb	r3, [r6, #1]
        strcpy(p, ptr->payload);
     19c:	3005      	adds	r0, #5
        *p = ptr->receiverId; p++;
     19e:	f800 3c02 	strb.w	r3, [r0, #-2]
        *p = ptr->sequenceNumber; p++;
     1a2:	78b3      	ldrb	r3, [r6, #2]
     1a4:	f800 3c01 	strb.w	r3, [r0, #-1]
        strcpy(p, ptr->payload);
     1a8:	f000 fff3 	bl	1192 <__pi_strcpy>

        // Increment the message sequence number
        sequence++;
     1ac:	4a0b      	ldr	r2, [pc, #44]	; (1dc <send+0x64>)

        // Output a confirmation message
        tcv_endp (spkt);
     1ae:	4620      	mov	r0, r4
        sequence++;
     1b0:	6813      	ldr	r3, [r2, #0]
     1b2:	3301      	adds	r3, #1
     1b4:	6013      	str	r3, [r2, #0]
        tcv_endp (spkt);
     1b6:	f001 fa8f 	bl	16d8 <tcv_endp>
        ser_outf(Send_Msg, "\n\rMessage Sent\n\r");
     1ba:	4628      	mov	r0, r5
     1bc:	4908      	ldr	r1, [pc, #32]	; (1e0 <send+0x68>)
     1be:	f001 fdfd 	bl	1dbc <ser_outf>

        // Finish the state machine
        finish;
     1c2:	4628      	mov	r0, r5
}
     1c4:	e8bd 4070 	ldmia.w	sp!, {r4, r5, r6, lr}
        finish;
     1c8:	f001 b8a4 	b.w	1314 <kill>
}
     1cc:	e8bd 4070 	ldmia.w	sp!, {r4, r5, r6, lr}
     1d0:	f000 bed2 	b.w	f78 <__pi_badstate>
     1d4:	2000013c 	andcs	r0, r0, ip, lsr r1
     1d8:	20000120 	andcs	r0, r0, r0, lsr #2
     1dc:	2000011c 	andcs	r0, r0, ip, lsl r1
     1e0:	00004194 	muleq	r0, r4, r1

000001e4 <root>:

/*
 * Purpose:  Root state machine for managing the P2P chat application.
*/
fsm root {
     1e4:	b513      	push	{r0, r1, r4, lr}
     1e6:	2809      	cmp	r0, #9
     1e8:	f200 80b1 	bhi.w	34e <root+0x16a>
     1ec:	e8df f000 	tbb	[pc, r0]
     1f0:	523a3105 	eorspl	r3, sl, #1073741825	; 0x40000001
     1f4:	7f6e6a56 	svcvc	0x006e6a56
     1f8:	22019383 	andcs	r9, r1, #201326594	; 0xc000002
     * Purpose: Initialization state to set up the application.
    */
    state INIT:
        // Set node ID to default value and reset sequence
        nodeId = 1;
        sequence = 0;
     1fc:	2400      	movs	r4, #0
        nodeId = 1;
     1fe:	4b57      	ldr	r3, [pc, #348]	; (35c <root+0x178>)
        // Allocate memory for the message
        ptr = (struct Message *) umalloc(sizeof(struct msg));
     200:	201e      	movs	r0, #30
        nodeId = 1;
     202:	701a      	strb	r2, [r3, #0]
        sequence = 0;
     204:	4b56      	ldr	r3, [pc, #344]	; (360 <root+0x17c>)
     206:	601c      	str	r4, [r3, #0]
        ptr = (struct Message *) umalloc(sizeof(struct msg));
     208:	f001 f8ac 	bl	1364 <__pi_malloc>
     20c:	4b55      	ldr	r3, [pc, #340]	; (364 <root+0x180>)
        // Set up cc1350 board
        phys_cc1350(0, CC1350_BUF_SZ);
     20e:	21fa      	movs	r1, #250	; 0xfa
        ptr = (struct Message *) umalloc(sizeof(struct msg));
     210:	6018      	str	r0, [r3, #0]
        phys_cc1350(0, CC1350_BUF_SZ);
     212:	4620      	mov	r0, r4
     214:	f002 fa1e 	bl	2654 <phys_cc1350>

        // Load null plug-in
        tcv_plug(0, &plug_null);
     218:	4953      	ldr	r1, [pc, #332]	; (368 <root+0x184>)
     21a:	4620      	mov	r0, r4
     21c:	f001 faf4 	bl	1808 <tcv_plug>

        // Open the TCV session
        sfd = tcv_open(NONE, 0, 0);
     220:	4622      	mov	r2, r4
     222:	4621      	mov	r1, r4
     224:	f64f 70ff 	movw	r0, #65535	; 0xffff
     228:	f001 fa8e 	bl	1748 <tcv_open>
     22c:	4a4f      	ldr	r2, [pc, #316]	; (36c <root+0x188>)
		
        // Check if the session opened successfully
        if (sfd < 0) {
     22e:	42a0      	cmp	r0, r4
        sfd = tcv_open(NONE, 0, 0);
     230:	6010      	str	r0, [r2, #0]
        if (sfd < 0) {
     232:	da06      	bge.n	242 <root+0x5e>
            diag("unable to open TCV session");
     234:	484e      	ldr	r0, [pc, #312]	; (370 <root+0x18c>)
     236:	f001 f90f 	bl	1458 <diag>
            syserror(EASSERT, "no session");
     23a:	200a      	movs	r0, #10
     23c:	494d      	ldr	r1, [pc, #308]	; (374 <root+0x190>)
     23e:	f000 f925 	bl	48c <__pi_syserror>
        }

        // Enable physical options and run receiver state machine
        tcv_control(sfd, PHYSOPT_ON, NULL);
     242:	2104      	movs	r1, #4
     244:	4622      	mov	r2, r4
     246:	f001 fba5 	bl	1994 <tcv_control>
        runfsm receiver;
     24a:	4621      	mov	r1, r4
     24c:	484a      	ldr	r0, [pc, #296]	; (378 <root+0x194>)
     24e:	f001 f8dd 	bl	140c <__pi_fork>
    /*
     * Purpose: State to display the main menu.
    */
    state Menu:
        // Reset receiver ID
        receiverId = 0;
     252:	2200      	movs	r2, #0
     254:	4b49      	ldr	r3, [pc, #292]	; (37c <root+0x198>)
        // Display the menu
        ser_outf(Menu, "\n\rP2P Chat (Node #%d)\n\r"
     256:	2001      	movs	r0, #1
        receiverId = 0;
     258:	701a      	strb	r2, [r3, #0]
        ser_outf(Menu, "\n\rP2P Chat (Node #%d)\n\r"
     25a:	4b40      	ldr	r3, [pc, #256]	; (35c <root+0x178>)
     25c:	4948      	ldr	r1, [pc, #288]	; (380 <root+0x19c>)
     25e:	781a      	ldrb	r2, [r3, #0]
     260:	f001 fdac 	bl	1dbc <ser_outf>
     * Purpose: State to handle user input choice.
    */
    state Choice:
        // Get user choice
        char choice;
        ser_inf(Choice, "%c", &choice);
     264:	4947      	ldr	r1, [pc, #284]	; (384 <root+0x1a0>)
     266:	f10d 0207 	add.w	r2, sp, #7
     26a:	2002      	movs	r0, #2
     26c:	f001 fdd0 	bl	1e10 <ser_inf>
        choice = toupper((unsigned char)choice);
     270:	f89d 0007 	ldrb.w	r0, [sp, #7]
     274:	f003 ff68 	bl	4148 <toupper>
     278:	b2c0      	uxtb	r0, r0
     27a:	2843      	cmp	r0, #67	; 0x43
     27c:	f88d 0007 	strb.w	r0, [sp, #7]

        switch (choice) {
     280:	d005      	beq.n	28e <root+0xaa>
     282:	2844      	cmp	r0, #68	; 0x44
     284:	d05b      	beq.n	33e <root+0x15a>
     286:	2842      	cmp	r0, #66	; 0x42
     288:	d15b      	bne.n	342 <root+0x15e>
                proceed Direct_Transmission;
                break;
            
            // Broadcast transmission
            case 'B':
                proceed Broadcast_Transmission;
     28a:	2007      	movs	r0, #7
     28c:	e000      	b.n	290 <root+0xac>
                proceed Change_ID;
     28e:	2003      	movs	r0, #3
                break;
            // Display error message for incorrect option
            default:
                ser_outf(Choice, "\n\rIncorrect Option.");
                // Return to the main menu
                proceed Menu;
     290:	f000 fefa 	bl	1088 <proceed>
        }
    /*
     * Purpose: State to prompt user to enter a new node ID.
    */
    state Change_ID:
        ser_outf(Change_ID, "\n\rNew node ID (1-25):");
     294:	2003      	movs	r0, #3
     296:	493c      	ldr	r1, [pc, #240]	; (388 <root+0x1a4>)
     298:	f001 fd90 	bl	1dbc <ser_outf>

    /*
     * Purpose: State to get and validate the new node ID entered by the user.
    */
    state Get_ChangeID:
        ser_inf(Get_ChangeID, "%d", &nodeId);
     29c:	4c2f      	ldr	r4, [pc, #188]	; (35c <root+0x178>)
     29e:	2004      	movs	r0, #4
     2a0:	4622      	mov	r2, r4
     2a2:	493a      	ldr	r1, [pc, #232]	; (38c <root+0x1a8>)
     2a4:	f001 fdb4 	bl	1e10 <ser_inf>
            // Check if the entered node ID is valid
            if (nodeId < 1 || nodeId > 25) {
     2a8:	7823      	ldrb	r3, [r4, #0]
     2aa:	3b01      	subs	r3, #1
     2ac:	2b18      	cmp	r3, #24
     2ae:	d906      	bls.n	2be <root+0xda>
                ser_outf(Get_ChangeID, "\n\rInvalid ID");
     2b0:	2004      	movs	r0, #4
     2b2:	4937      	ldr	r1, [pc, #220]	; (390 <root+0x1ac>)
     2b4:	f001 fd82 	bl	1dbc <ser_outf>
                // Retry getting a valid ID
                proceed Change_ID;
     2b8:	2003      	movs	r0, #3
     2ba:	f000 fee5 	bl	1088 <proceed>
            }
            // Return to the main menu after successful ID change
            proceed Menu;
     2be:	2001      	movs	r0, #1
     2c0:	f000 fee2 	bl	1088 <proceed>

    /*
     * Purpose: State to prompt user to enter the receiver node ID for direct transmission.
    */
    state Direct_Transmission:
        ser_outf(Direct_Transmission, "\n\rReceiver node ID (1-25):");
     2c4:	2005      	movs	r0, #5
     2c6:	4933      	ldr	r1, [pc, #204]	; (394 <root+0x1b0>)
     2c8:	f001 fd78 	bl	1dbc <ser_outf>
    
    /*
     * Purpose: State to get and validate the receiver node ID entered by the user.
    */
    state Get_ReceiverID:
        ser_inf(Get_ReceiverID, "%d", &receiverId);
     2cc:	4c2b      	ldr	r4, [pc, #172]	; (37c <root+0x198>)
     2ce:	2006      	movs	r0, #6
     2d0:	4622      	mov	r2, r4
     2d2:	492e      	ldr	r1, [pc, #184]	; (38c <root+0x1a8>)
     2d4:	f001 fd9c 	bl	1e10 <ser_inf>
            // Check if the entered receiver ID is valid
            if (receiverId < 1 || receiverId > 25) {
     2d8:	7823      	ldrb	r3, [r4, #0]
     2da:	3b01      	subs	r3, #1
     2dc:	2b18      	cmp	r3, #24
     2de:	d906      	bls.n	2ee <root+0x10a>
                // Display error message for invalid ID
                ser_outf(Get_ReceiverID, "\n\rInvalid ID");
     2e0:	2006      	movs	r0, #6
     2e2:	492b      	ldr	r1, [pc, #172]	; (390 <root+0x1ac>)
     2e4:	f001 fd6a 	bl	1dbc <ser_outf>
                // Retry getting a valid receiver ID
                proceed Direct_Transmission;
     2e8:	2005      	movs	r0, #5
     2ea:	f000 fecd 	bl	1088 <proceed>

    /*
     * Purpose: State to prompt user to enter the message for broadcast transmission.
    */
    state Broadcast_Transmission:
        ser_outf(Broadcast_Transmission, "\n\rMessage: ");
     2ee:	2007      	movs	r0, #7
     2f0:	4929      	ldr	r1, [pc, #164]	; (398 <root+0x1b4>)
     2f2:	f001 fd63 	bl	1dbc <ser_outf>
    
    /*
     * Purpose: State to receive and process the message entered by the user.
    */
    state Receive_Msg:
        ser_in(Receive_Msg, ptr->payload, 27);
     2f6:	4c1b      	ldr	r4, [pc, #108]	; (364 <root+0x180>)
     2f8:	221b      	movs	r2, #27
     2fa:	6821      	ldr	r1, [r4, #0]
     2fc:	2008      	movs	r0, #8
     2fe:	3103      	adds	r1, #3
     300:	f001 fdb6 	bl	1e70 <ser_in>
        if(strlen(ptr->payload) >= 27) {
     304:	6820      	ldr	r0, [r4, #0]
     306:	3003      	adds	r0, #3
     308:	f000 ff3c 	bl	1184 <__pi_strlen>
     30c:	281a      	cmp	r0, #26
            // Ensure message is null-terminated
            ptr->payload[26] = '\0';
     30e:	bfc2      	ittt	gt
     310:	2200      	movgt	r2, #0
     312:	6823      	ldrgt	r3, [r4, #0]
     314:	775a      	strbgt	r2, [r3, #29]
    /*
     * Purpose: State to send the message after receiving input and validating receiver ID.
    */
    state Sending:
        // Set sender ID
        ptr->senderId = nodeId;
     316:	4b13      	ldr	r3, [pc, #76]	; (364 <root+0x180>)
        // Set receiver ID
        ptr->receiverId = receiverId;
        // Set sequence number
        ptr->sequenceNumber = (byte)sequence;
        // Call send finite state machine to transmit the message
        call send(ptr, Menu);
     318:	4820      	ldr	r0, [pc, #128]	; (39c <root+0x1b8>)
        ptr->senderId = nodeId;
     31a:	6819      	ldr	r1, [r3, #0]
     31c:	4b0f      	ldr	r3, [pc, #60]	; (35c <root+0x178>)
     31e:	781b      	ldrb	r3, [r3, #0]
     320:	700b      	strb	r3, [r1, #0]
        ptr->receiverId = receiverId;
     322:	4b16      	ldr	r3, [pc, #88]	; (37c <root+0x198>)
     324:	781b      	ldrb	r3, [r3, #0]
     326:	704b      	strb	r3, [r1, #1]
        ptr->sequenceNumber = (byte)sequence;
     328:	4b0d      	ldr	r3, [pc, #52]	; (360 <root+0x17c>)
     32a:	681b      	ldr	r3, [r3, #0]
     32c:	708b      	strb	r3, [r1, #2]
        call send(ptr, Menu);
     32e:	f001 f86d 	bl	140c <__pi_fork>
     332:	2101      	movs	r1, #1
     334:	f000 fee6 	bl	1104 <__pi_join>
     338:	b170      	cbz	r0, 358 <root+0x174>
     33a:	f000 fc4f 	bl	bdc <__pi_release>
                proceed Direct_Transmission;
     33e:	2005      	movs	r0, #5
     340:	e7a6      	b.n	290 <root+0xac>
                ser_outf(Choice, "\n\rIncorrect Option.");
     342:	2002      	movs	r0, #2
     344:	4916      	ldr	r1, [pc, #88]	; (3a0 <root+0x1bc>)
     346:	f001 fd39 	bl	1dbc <ser_outf>
                proceed Menu;
     34a:	2001      	movs	r0, #1
     34c:	e7a0      	b.n	290 <root+0xac>
}
     34e:	b002      	add	sp, #8
     350:	e8bd 4010 	ldmia.w	sp!, {r4, lr}
     354:	f000 be10 	b.w	f78 <__pi_badstate>
     358:	b002      	add	sp, #8
     35a:	bd10      	pop	{r4, pc}
     35c:	20000108 	andcs	r0, r0, r8, lsl #2
     360:	2000011c 	andcs	r0, r0, ip, lsl r1
     364:	20000110 	andcs	r0, r0, r0, lsl r1
     368:	00004e0c 	andeq	r4, r0, ip, lsl #28
     36c:	20000120 	andcs	r0, r0, r0, lsr #2
     370:	000041a5 	andeq	r4, r0, r5, lsr #3
     374:	000041c0 	andeq	r4, r0, r0, asr #3
     378:	000000c9 	andeq	r0, r0, r9, asr #1
     37c:	20000118 	andcs	r0, r0, r8, lsl r1
     380:	000041cb 	andeq	r4, r0, fp, asr #3
     384:	00004231 	andeq	r4, r0, r1, lsr r2
     388:	00004248 	andeq	r4, r0, r8, asr #4
     38c:	00004493 	muleq	r0, r3, r4
     390:	0000425e 	andeq	r4, r0, lr, asr r2
     394:	0000426b 	andeq	r4, r0, fp, ror #4
     398:	00004286 	andeq	r4, r0, r6, lsl #5
     39c:	00000179 	andeq	r0, r0, r9, ror r1
     3a0:	00004234 	andeq	r4, r0, r4, lsr r2

000003a4 <devinit_uart>:
			/* No return */
			return 0;
	}
}

static void devinit_uart (int devnum) {
     3a4:	4601      	mov	r1, r0

	adddevfunc (ioreq_uart_a, devnum);
     3a6:	4801      	ldr	r0, [pc, #4]	; (3ac <devinit_uart+0x8>)
     3a8:	f000 bf08 	b.w	11bc <adddevfunc>
     3ac:	00000739 	andeq	r0, r0, r9, lsr r7

000003b0 <udelay>:
void udelay (volatile word n) {
     3b0:	b082      	sub	sp, #8
     3b2:	f8ad 0006 	strh.w	r0, [sp, #6]
	while (n) {
     3b6:	f8bd 3006 	ldrh.w	r3, [sp, #6]
     3ba:	b29b      	uxth	r3, r3
     3bc:	b90b      	cbnz	r3, 3c2 <udelay+0x12>
}
     3be:	b002      	add	sp, #8
     3c0:	4770      	bx	lr
		_gdelay (__USEC_DELAY);
     3c2:	2304      	movs	r3, #4
	while (n--);
     3c4:	461a      	mov	r2, r3
     3c6:	3b01      	subs	r3, #1
     3c8:	b29b      	uxth	r3, r3
     3ca:	2a00      	cmp	r2, #0
     3cc:	d1fa      	bne.n	3c4 <udelay+0x14>
		n--;
     3ce:	f8bd 3006 	ldrh.w	r3, [sp, #6]
     3d2:	3b01      	subs	r3, #1
     3d4:	b29b      	uxth	r3, r3
     3d6:	f8ad 3006 	strh.w	r3, [sp, #6]
     3da:	e7ec      	b.n	3b6 <udelay+0x6>

000003dc <mdelay>:
void mdelay (volatile word n) {
     3dc:	b507      	push	{r0, r1, r2, lr}
     3de:	f8ad 0006 	strh.w	r0, [sp, #6]
	while (n) {
     3e2:	f8bd 3006 	ldrh.w	r3, [sp, #6]
     3e6:	b29b      	uxth	r3, r3
     3e8:	b913      	cbnz	r3, 3f0 <mdelay+0x14>
}
     3ea:	b003      	add	sp, #12
     3ec:	f85d fb04 	ldr.w	pc, [sp], #4
		udelay (999);
     3f0:	f240 30e7 	movw	r0, #999	; 0x3e7
     3f4:	f7ff ffdc 	bl	3b0 <udelay>
		n--;
     3f8:	f8bd 3006 	ldrh.w	r3, [sp, #6]
     3fc:	3b01      	subs	r3, #1
     3fe:	b29b      	uxth	r3, r3
     400:	f8ad 3006 	strh.w	r3, [sp, #6]
     404:	e7ed      	b.n	3e2 <mdelay+0x6>
	...

00000408 <__pi_ondomain>:
void __pi_ondomain (lword d) {
     408:	b538      	push	{r3, r4, r5, lr}
	if (d & PRCM_DOMAIN_RFCORE) {
     40a:	07c3      	lsls	r3, r0, #31
void __pi_ondomain (lword d) {
     40c:	4604      	mov	r4, r0
	if (d & PRCM_DOMAIN_RFCORE) {
     40e:	d505      	bpl.n	41c <__pi_ondomain+0x14>
		if (__pi_systat.effpdm > 1)
     410:	4b0c      	ldr	r3, [pc, #48]	; (444 <__pi_ondomain+0x3c>)
     412:	78da      	ldrb	r2, [r3, #3]
     414:	2a01      	cmp	r2, #1
			__pi_systat.effpdm = 1;
     416:	bf84      	itt	hi
     418:	2201      	movhi	r2, #1
     41a:	70da      	strbhi	r2, [r3, #3]
	PRCMPowerDomainOn (d);
     41c:	f04f 5580 	mov.w	r5, #268435456	; 0x10000000
     420:	f8d5 31b8 	ldr.w	r3, [r5, #440]	; 0x1b8
     424:	4620      	mov	r0, r4
     426:	695b      	ldr	r3, [r3, #20]
     428:	4798      	blx	r3
	while (PRCMPowerDomainStatus (d) != PRCM_DOMAIN_POWER_ON);
     42a:	f8d5 31b8 	ldr.w	r3, [r5, #440]	; 0x1b8
     42e:	4620      	mov	r0, r4
     430:	6b5b      	ldr	r3, [r3, #52]	; 0x34
     432:	4798      	blx	r3
     434:	2801      	cmp	r0, #1
     436:	d1f8      	bne.n	42a <__pi_ondomain+0x22>
	__pi_systat.ondmns |= d;
     438:	4b02      	ldr	r3, [pc, #8]	; (444 <__pi_ondomain+0x3c>)
     43a:	6858      	ldr	r0, [r3, #4]
     43c:	4304      	orrs	r4, r0
     43e:	605c      	str	r4, [r3, #4]
}
     440:	bd38      	pop	{r3, r4, r5, pc}
     442:	bf00      	nop
     444:	20000148 	andcs	r0, r0, r8, asr #2

00000448 <__pi_offdomain>:
void __pi_offdomain (lword d) {
     448:	b538      	push	{r3, r4, r5, lr}
	PRCMPowerDomainOff (d);
     44a:	f04f 5580 	mov.w	r5, #268435456	; 0x10000000
     44e:	f8d5 31b8 	ldr.w	r3, [r5, #440]	; 0x1b8
void __pi_offdomain (lword d) {
     452:	4604      	mov	r4, r0
	PRCMPowerDomainOff (d);
     454:	699b      	ldr	r3, [r3, #24]
     456:	4798      	blx	r3
	while (PRCMPowerDomainStatus (d) != PRCM_DOMAIN_POWER_OFF);
     458:	f8d5 31b8 	ldr.w	r3, [r5, #440]	; 0x1b8
     45c:	4620      	mov	r0, r4
     45e:	6b5b      	ldr	r3, [r3, #52]	; 0x34
     460:	4798      	blx	r3
     462:	2802      	cmp	r0, #2
     464:	d1f8      	bne.n	458 <__pi_offdomain+0x10>
	if (d & PRCM_DOMAIN_RFCORE) {
     466:	f014 0f01 	tst.w	r4, #1
     46a:	4b07      	ldr	r3, [pc, #28]	; (488 <__pi_offdomain+0x40>)
     46c:	d006      	beq.n	47c <__pi_offdomain+0x34>
		if (__pi_systat.reqpdm > __pi_systat.effpdm)
     46e:	7899      	ldrb	r1, [r3, #2]
     470:	78da      	ldrb	r2, [r3, #3]
     472:	4291      	cmp	r1, r2
			__pi_systat.effpdm = __pi_systat.reqpdm;
     474:	bf82      	ittt	hi
     476:	789a      	ldrbhi	r2, [r3, #2]
     478:	b2d2      	uxtbhi	r2, r2
     47a:	70da      	strbhi	r2, [r3, #3]
	__pi_systat.ondmns &= ~d;
     47c:	6858      	ldr	r0, [r3, #4]
     47e:	ea20 0404 	bic.w	r4, r0, r4
     482:	605c      	str	r4, [r3, #4]
}
     484:	bd38      	pop	{r3, r4, r5, pc}
     486:	bf00      	nop
     488:	20000148 	andcs	r0, r0, r8, asr #2

0000048c <__pi_syserror>:
void __pi_syserror (word ec, const char *m) {
     48c:	460a      	mov	r2, r1
     48e:	b508      	push	{r3, lr}
	diag ("SYSERR: %x, %s", ec, m);
     490:	4601      	mov	r1, r0
     492:	4810      	ldr	r0, [pc, #64]	; (4d4 <__pi_syserror+0x48>)
     494:	f000 ffe0 	bl	1458 <diag>
  \details Disables IRQ interrupts by setting the I-bit in the CPSR.
           Can only be executed in Privileged modes.
 */
__attribute__((always_inline)) __STATIC_INLINE void __disable_irq(void)
{
  __ASM volatile ("cpsid i" : : : "memory");
     498:	b672      	cpsid	i
    ASSERT( dioNumberLegal( dioNumber ));

    //
    // Set the specified DIO.
    //
    HWREG( GPIO_BASE + GPIO_O_DOUTSET31_0 ) = ( 1 << dioNumber );
     49a:	2640      	movs	r6, #64	; 0x40
     49c:	4c0e      	ldr	r4, [pc, #56]	; (4d8 <__pi_syserror+0x4c>)
     49e:	2580      	movs	r5, #128	; 0x80
		all_leds_blink;
     4a0:	490e      	ldr	r1, [pc, #56]	; (4dc <__pi_syserror+0x50>)
     4a2:	f8c4 6090 	str.w	r6, [r4, #144]	; 0x90
     4a6:	f8c4 5090 	str.w	r5, [r4, #144]	; 0x90
     4aa:	780b      	ldrb	r3, [r1, #0]
     4ac:	780b      	ldrb	r3, [r1, #0]
     4ae:	20c8      	movs	r0, #200	; 0xc8
     4b0:	f36f 1307 	bfc	r3, #4, #4
     4b4:	700b      	strb	r3, [r1, #0]
     4b6:	f7ff ff91 	bl	3dc <mdelay>
    ASSERT( dioNumberLegal( dioNumber ));

    //
    // Clear the specified DIO.
    //
    HWREG( GPIO_BASE + GPIO_O_DOUTCLR31_0 ) = ( 1 << dioNumber );
     4ba:	f8c4 60a0 	str.w	r6, [r4, #160]	; 0xa0
     4be:	f8c4 50a0 	str.w	r5, [r4, #160]	; 0xa0
     4c2:	780b      	ldrb	r3, [r1, #0]
     4c4:	780b      	ldrb	r3, [r1, #0]
     4c6:	20c8      	movs	r0, #200	; 0xc8
     4c8:	f36f 1307 	bfc	r3, #4, #4
     4cc:	700b      	strb	r3, [r1, #0]
     4ce:	f7ff ff85 	bl	3dc <mdelay>
	while (1) {
     4d2:	e7e4      	b.n	49e <__pi_syserror+0x12>
     4d4:	00004292 	muleq	r0, r2, r2
     4d8:	40022000 	andmi	r2, r2, r0
     4dc:	20000148 	andcs	r0, r0, r8, asr #2

000004e0 <tci_run_delay_timer>:
void tci_run_delay_timer () {
     4e0:	b510      	push	{r4, lr}
	setdel = __pi_mintk - __pi_old;
     4e2:	4b0b      	ldr	r3, [pc, #44]	; (510 <tci_run_delay_timer+0x30>)
     4e4:	881c      	ldrh	r4, [r3, #0]
     4e6:	4b0b      	ldr	r3, [pc, #44]	; (514 <tci_run_delay_timer+0x34>)
     4e8:	8818      	ldrh	r0, [r3, #0]
     4ea:	4b0b      	ldr	r3, [pc, #44]	; (518 <tci_run_delay_timer+0x38>)
     4ec:	1b00      	subs	r0, r0, r4
     4ee:	b284      	uxth	r4, r0
     4f0:	801c      	strh	r4, [r3, #0]
	return (lword)(AONRTCCurrent64BitValueGet () >> 16) + TCI_TINCR (del);
     4f2:	f002 fdcf 	bl	3094 <NOROM_AONRTCCurrent64BitValueGet>
	sti_tim;
     4f6:	2201      	movs	r2, #1
	return (lword)(AONRTCCurrent64BitValueGet () >> 16) + TCI_TINCR (del);
     4f8:	0c00      	lsrs	r0, r0, #16
	HWREG (AON_RTC_BASE + AON_RTC_O_CH0CMP) = settav (setdel);
     4fa:	4b08      	ldr	r3, [pc, #32]	; (51c <tci_run_delay_timer+0x3c>)
	return (lword)(AONRTCCurrent64BitValueGet () >> 16) + TCI_TINCR (del);
     4fc:	ea40 4001 	orr.w	r0, r0, r1, lsl #16
     500:	eb00 1084 	add.w	r0, r0, r4, lsl #6
	HWREG (AON_RTC_BASE + AON_RTC_O_CH0CMP) = settav (setdel);
     504:	6198      	str	r0, [r3, #24]
	sti_tim;
     506:	4b06      	ldr	r3, [pc, #24]	; (520 <tci_run_delay_timer+0x40>)
     508:	f8c3 2280 	str.w	r2, [r3, #640]	; 0x280
}
     50c:	bd10      	pop	{r4, pc}
     50e:	bf00      	nop
     510:	20000144 	andcs	r0, r0, r4, asr #2
     514:	20000140 	andcs	r0, r0, r0, asr #2
     518:	2000012c 	andcs	r0, r0, ip, lsr #2
     51c:	40092000 	andmi	r2, r9, r0
     520:	43240000 			; <UNDEFINED> instruction: 0x43240000

00000524 <tci_run_auxiliary_timer>:
	cli_aux;
     524:	2300      	movs	r3, #0
void tci_run_auxiliary_timer () {
     526:	b510      	push	{r4, lr}
	cli_aux;
     528:	4c07      	ldr	r4, [pc, #28]	; (548 <tci_run_auxiliary_timer+0x24>)
     52a:	f8c4 32c0 	str.w	r3, [r4, #704]	; 0x2c0
	return (lword)(AONRTCCurrent64BitValueGet () >> 16) + TCI_TINCR (del);
     52e:	f002 fdb1 	bl	3094 <NOROM_AONRTCCurrent64BitValueGet>
     532:	0c00      	lsrs	r0, r0, #16
	HWREG (AON_RTC_BASE + AON_RTC_O_CH2CMP) = settav (1);
     534:	4b05      	ldr	r3, [pc, #20]	; (54c <tci_run_auxiliary_timer+0x28>)
	return (lword)(AONRTCCurrent64BitValueGet () >> 16) + TCI_TINCR (del);
     536:	ea40 4001 	orr.w	r0, r0, r1, lsl #16
     53a:	3040      	adds	r0, #64	; 0x40
	HWREG (AON_RTC_BASE + AON_RTC_O_CH2CMP) = settav (1);
     53c:	6218      	str	r0, [r3, #32]
	sti_aux;
     53e:	2301      	movs	r3, #1
     540:	f8c4 32c0 	str.w	r3, [r4, #704]	; 0x2c0
}
     544:	bd10      	pop	{r4, pc}
     546:	bf00      	nop
     548:	43240000 			; <UNDEFINED> instruction: 0x43240000
     54c:	40092000 	andmi	r2, r9, r0

00000550 <AONRTCIntHandler>:
void AONRTCIntHandler () {
     550:	b510      	push	{r4, lr}
	events = HWREG (AON_RTC_BASE + AON_RTC_O_EVFLAGS) & 
     552:	4b3e      	ldr	r3, [pc, #248]	; (64c <AONRTCIntHandler+0xfc>)
     554:	6858      	ldr	r0, [r3, #4]
     556:	f000 1201 	and.w	r2, r0, #65537	; 0x10001
	if (events & AON_RTC_EVFLAGS_CH2) {
     55a:	03c4      	lsls	r4, r0, #15
	HWREG (AON_RTC_BASE + AON_RTC_O_EVFLAGS) = events;
     55c:	605a      	str	r2, [r3, #4]
	if (events & AON_RTC_EVFLAGS_CH2) {
     55e:	d544      	bpl.n	5ea <AONRTCIntHandler+0x9a>
		if (__pi_utims [0] == 0)
     560:	4b3b      	ldr	r3, [pc, #236]	; (650 <AONRTCIntHandler+0x100>)
     562:	6819      	ldr	r1, [r3, #0]
     564:	2900      	cmp	r1, #0
     566:	d056      	beq.n	616 <AONRTCIntHandler+0xc6>
		if (*(__pi_utims [0])) {
     568:	880a      	ldrh	r2, [r1, #0]
     56a:	2a00      	cmp	r2, #0
     56c:	d051      	beq.n	612 <AONRTCIntHandler+0xc2>
			(*(__pi_utims [0]))--;
     56e:	3a01      	subs	r2, #1
     570:	800a      	strh	r2, [r1, #0]
			aux_timer_inactive = 0;
     572:	2200      	movs	r2, #0
		if (__pi_utims [1] == 0)
     574:	685c      	ldr	r4, [r3, #4]
     576:	b194      	cbz	r4, 59e <AONRTCIntHandler+0x4e>
		if (*(__pi_utims [1])) {
     578:	8821      	ldrh	r1, [r4, #0]
     57a:	b111      	cbz	r1, 582 <AONRTCIntHandler+0x32>
			aux_timer_inactive = 0;
     57c:	2200      	movs	r2, #0
			(*(__pi_utims [1]))--;
     57e:	3901      	subs	r1, #1
     580:	8021      	strh	r1, [r4, #0]
		if (__pi_utims [2] == 0)
     582:	689c      	ldr	r4, [r3, #8]
     584:	b15c      	cbz	r4, 59e <AONRTCIntHandler+0x4e>
		if (*(__pi_utims [2])) {
     586:	8821      	ldrh	r1, [r4, #0]
     588:	b111      	cbz	r1, 590 <AONRTCIntHandler+0x40>
			aux_timer_inactive = 0;
     58a:	2200      	movs	r2, #0
			(*(__pi_utims [2]))--;
     58c:	3901      	subs	r1, #1
     58e:	8021      	strh	r1, [r4, #0]
		if (__pi_utims [3] != 0) {
     590:	68d9      	ldr	r1, [r3, #12]
     592:	b121      	cbz	r1, 59e <AONRTCIntHandler+0x4e>
			if (*(__pi_utims [3])) {
     594:	880b      	ldrh	r3, [r1, #0]
     596:	b113      	cbz	r3, 59e <AONRTCIntHandler+0x4e>
				aux_timer_inactive = 0;
     598:	2200      	movs	r2, #0
				(*(__pi_utims [3]))--;
     59a:	3b01      	subs	r3, #1
     59c:	800b      	strh	r3, [r1, #0]
/* ==================================================================== */
/* Copyright (C) Olsonet Communications, 2002 - 2006                    */
/* All rights reserved.                                                 */
/* ==================================================================== */

	if (__pi_systat.ledsts) {
     59e:	4b2d      	ldr	r3, [pc, #180]	; (654 <AONRTCIntHandler+0x104>)
     5a0:	7819      	ldrb	r1, [r3, #0]
     5a2:	0909      	lsrs	r1, r1, #4
     5a4:	d04c      	beq.n	640 <AONRTCIntHandler+0xf0>
		// Some leds are supposed to blink
		if (__pi_systat.ledblc++ == 0) {
     5a6:	7859      	ldrb	r1, [r3, #1]
     5a8:	1c4a      	adds	r2, r1, #1
     5aa:	b2d2      	uxtb	r2, r2
     5ac:	705a      	strb	r2, [r3, #1]
     5ae:	b9e1      	cbnz	r1, 5ea <AONRTCIntHandler+0x9a>
			if (__pi_systat.ledblk) {
     5b0:	781a      	ldrb	r2, [r3, #0]
     5b2:	f012 0f08 	tst.w	r2, #8
				if (__pi_systat.ledsts & 0x1)
     5b6:	781a      	ldrb	r2, [r3, #0]
			if (__pi_systat.ledblk) {
     5b8:	d02f      	beq.n	61a <AONRTCIntHandler+0xca>
				if (__pi_systat.ledsts & 0x1)
     5ba:	06d1      	lsls	r1, r2, #27
    HWREG( GPIO_BASE + GPIO_O_DOUTSET31_0 ) = ( 1 << dioNumber );
     5bc:	bf42      	ittt	mi
     5be:	2140      	movmi	r1, #64	; 0x40
     5c0:	4a25      	ldrmi	r2, [pc, #148]	; (658 <AONRTCIntHandler+0x108>)
     5c2:	f8c2 1090 	strmi.w	r1, [r2, #144]	; 0x90
					LED0_ON;
				if (__pi_systat.ledsts & 0x2)
     5c6:	781a      	ldrb	r2, [r3, #0]
     5c8:	0692      	lsls	r2, r2, #26
     5ca:	bf42      	ittt	mi
     5cc:	2180      	movmi	r1, #128	; 0x80
     5ce:	4a22      	ldrmi	r2, [pc, #136]	; (658 <AONRTCIntHandler+0x108>)
     5d0:	f8c2 1090 	strmi.w	r1, [r2, #144]	; 0x90
					LED1_ON;
				if (__pi_systat.ledsts & 0x4)
     5d4:	781a      	ldrb	r2, [r3, #0]
					LED2_ON;
				if (__pi_systat.ledsts & 0x8)
     5d6:	781a      	ldrb	r2, [r3, #0]
					LED3_ON;
				__pi_systat.ledblk = 0;
     5d8:	781a      	ldrb	r2, [r3, #0]
     5da:	f36f 02c3 	bfc	r2, #3, #1
					LED1_OFF;
				if (__pi_systat.ledsts & 0x4)
					LED2_OFF;
				if (__pi_systat.ledsts & 0x8)
					LED3_OFF;
				__pi_systat.ledblk = 1;
     5de:	701a      	strb	r2, [r3, #0]
			}
			if (__pi_systat.fstblk)
     5e0:	781a      	ldrb	r2, [r3, #0]
     5e2:	0752      	lsls	r2, r2, #29
     5e4:	d501      	bpl.n	5ea <AONRTCIntHandler+0x9a>
				__pi_systat.ledblc = 200;
     5e6:	22c8      	movs	r2, #200	; 0xc8
     5e8:	705a      	strb	r2, [r3, #1]
	if (events & AON_RTC_EVFLAGS_CH0) {
     5ea:	07c3      	lsls	r3, r0, #31
     5ec:	d510      	bpl.n	610 <AONRTCIntHandler+0xc0>
		cli_tim;
     5ee:	2100      	movs	r1, #0
     5f0:	4b1a      	ldr	r3, [pc, #104]	; (65c <AONRTCIntHandler+0x10c>)
		__pi_new += setdel;
     5f2:	4a1b      	ldr	r2, [pc, #108]	; (660 <AONRTCIntHandler+0x110>)
     5f4:	481b      	ldr	r0, [pc, #108]	; (664 <AONRTCIntHandler+0x114>)
		cli_tim;
     5f6:	f8c3 1280 	str.w	r1, [r3, #640]	; 0x280
		__pi_new += setdel;
     5fa:	8803      	ldrh	r3, [r0, #0]
     5fc:	8814      	ldrh	r4, [r2, #0]
		setdel = 0;
     5fe:	8011      	strh	r1, [r2, #0]
		__pi_new += setdel;
     600:	4423      	add	r3, r4
		RISE_N_SHINE;
     602:	4a14      	ldr	r2, [pc, #80]	; (654 <AONRTCIntHandler+0x104>)
		__pi_new += setdel;
     604:	b29b      	uxth	r3, r3
     606:	8003      	strh	r3, [r0, #0]
		RISE_N_SHINE;
     608:	7813      	ldrb	r3, [r2, #0]
     60a:	f043 0302 	orr.w	r3, r3, #2
     60e:	7013      	strb	r3, [r2, #0]
}
     610:	bd10      	pop	{r4, pc}
		aux_timer_inactive = 1;
     612:	2201      	movs	r2, #1
     614:	e7ae      	b.n	574 <AONRTCIntHandler+0x24>
     616:	2201      	movs	r2, #1
     618:	e7c1      	b.n	59e <AONRTCIntHandler+0x4e>
				if (__pi_systat.ledsts & 0x1)
     61a:	06d4      	lsls	r4, r2, #27
    HWREG( GPIO_BASE + GPIO_O_DOUTCLR31_0 ) = ( 1 << dioNumber );
     61c:	bf42      	ittt	mi
     61e:	2140      	movmi	r1, #64	; 0x40
     620:	4a0d      	ldrmi	r2, [pc, #52]	; (658 <AONRTCIntHandler+0x108>)
     622:	f8c2 10a0 	strmi.w	r1, [r2, #160]	; 0xa0
				if (__pi_systat.ledsts & 0x2)
     626:	781a      	ldrb	r2, [r3, #0]
     628:	0691      	lsls	r1, r2, #26
     62a:	bf42      	ittt	mi
     62c:	2180      	movmi	r1, #128	; 0x80
     62e:	4a0a      	ldrmi	r2, [pc, #40]	; (658 <AONRTCIntHandler+0x108>)
     630:	f8c2 10a0 	strmi.w	r1, [r2, #160]	; 0xa0
				if (__pi_systat.ledsts & 0x4)
     634:	781a      	ldrb	r2, [r3, #0]
				if (__pi_systat.ledsts & 0x8)
     636:	781a      	ldrb	r2, [r3, #0]
				__pi_systat.ledblk = 1;
     638:	781a      	ldrb	r2, [r3, #0]
     63a:	f042 0208 	orr.w	r2, r2, #8
     63e:	e7ce      	b.n	5de <AONRTCIntHandler+0x8e>
		if (aux_timer_inactive) {
     640:	2a00      	cmp	r2, #0
     642:	d0d2      	beq.n	5ea <AONRTCIntHandler+0x9a>
			cli_aux;
     644:	4b05      	ldr	r3, [pc, #20]	; (65c <AONRTCIntHandler+0x10c>)
     646:	f8c3 12c0 	str.w	r1, [r3, #704]	; 0x2c0
     64a:	e7ce      	b.n	5ea <AONRTCIntHandler+0x9a>
     64c:	40092000 	andmi	r2, r9, r0
     650:	20000150 	andcs	r0, r0, r0, asr r1
     654:	20000148 	andcs	r0, r0, r8, asr #2
     658:	40022000 	andmi	r2, r2, r0
     65c:	43240000 			; <UNDEFINED> instruction: 0x43240000
     660:	2000012c 	andcs	r0, r0, ip, lsr #2
     664:	20000142 	andcs	r0, r0, r2, asr #2

00000668 <tci_update_delay_ticks>:
word tci_update_delay_ticks (Boolean force) {
     668:	b5f8      	push	{r3, r4, r5, r6, r7, lr}
	cli_tim;
     66a:	2600      	movs	r6, #0
     66c:	4b0f      	ldr	r3, [pc, #60]	; (6ac <tci_update_delay_ticks+0x44>)
	if (setdel) {
     66e:	4f10      	ldr	r7, [pc, #64]	; (6b0 <tci_update_delay_ticks+0x48>)
	cli_tim;
     670:	f8c3 6280 	str.w	r6, [r3, #640]	; 0x280
	if (setdel) {
     674:	883d      	ldrh	r5, [r7, #0]
     676:	b19d      	cbz	r5, 6a0 <tci_update_delay_ticks+0x38>
		if (force) {
     678:	b1a0      	cbz	r0, 6a4 <tci_update_delay_ticks+0x3c>
			__pi_new += setdel - (TCI_INCRT (HWREG (AON_RTC_BASE +
     67a:	4b0e      	ldr	r3, [pc, #56]	; (6b4 <tci_update_delay_ticks+0x4c>)
     67c:	699c      	ldr	r4, [r3, #24]
	return (word)(AONRTCCurrent64BitValueGet () >> (32 - 10));
     67e:	f002 fd09 	bl	3094 <NOROM_AONRTCCurrent64BitValueGet>
     682:	0d80      	lsrs	r0, r0, #22
     684:	ea40 2081 	orr.w	r0, r0, r1, lsl #10
			__pi_new += setdel - (TCI_INCRT (HWREG (AON_RTC_BASE +
     688:	f3c4 148f 	ubfx	r4, r4, #6, #16
				AON_RTC_O_CH0CMP)) - gettav ());
     68c:	b280      	uxth	r0, r0
     68e:	1a24      	subs	r4, r4, r0
			__pi_new += setdel - (TCI_INCRT (HWREG (AON_RTC_BASE +
     690:	1b2c      	subs	r4, r5, r4
	return NO;
     692:	4635      	mov	r5, r6
			__pi_new += setdel - (TCI_INCRT (HWREG (AON_RTC_BASE +
     694:	4b08      	ldr	r3, [pc, #32]	; (6b8 <tci_update_delay_ticks+0x50>)
			setdel = 0;
     696:	803e      	strh	r6, [r7, #0]
			__pi_new += setdel - (TCI_INCRT (HWREG (AON_RTC_BASE +
     698:	881a      	ldrh	r2, [r3, #0]
     69a:	4414      	add	r4, r2
     69c:	b2a4      	uxth	r4, r4
     69e:	801c      	strh	r4, [r3, #0]
}
     6a0:	4628      	mov	r0, r5
     6a2:	bdf8      	pop	{r3, r4, r5, r6, r7, pc}
		sti_tim;
     6a4:	2501      	movs	r5, #1
     6a6:	f8c3 5280 	str.w	r5, [r3, #640]	; 0x280
		return YES;
     6aa:	e7f9      	b.n	6a0 <tci_update_delay_ticks+0x38>
     6ac:	43240000 			; <UNDEFINED> instruction: 0x43240000
     6b0:	2000012c 	andcs	r0, r0, ip, lsr #2
     6b4:	40092000 	andmi	r2, r9, r0
     6b8:	20000142 	andcs	r0, r0, r2, asr #2

000006bc <__pi_uart_setrate>:
Boolean __pi_uart_setrate (word rate, uart_t *ua) {
     6bc:	b570      	push	{r4, r5, r6, lr}
	UARTDisable (UART0_BASE);
     6be:	f04f 5680 	mov.w	r6, #268435456	; 0x10000000
     6c2:	4c0f      	ldr	r4, [pc, #60]	; (700 <__pi_uart_setrate+0x44>)
     6c4:	f8d6 31d0 	ldr.w	r3, [r6, #464]	; 0x1d0
Boolean __pi_uart_setrate (word rate, uart_t *ua) {
     6c8:	4605      	mov	r5, r0
	UARTDisable (UART0_BASE);
     6ca:	68db      	ldr	r3, [r3, #12]
     6cc:	4620      	mov	r0, r4
     6ce:	4798      	blx	r3
	UARTConfigSetExpClk (UART0_BASE,
     6d0:	2264      	movs	r2, #100	; 0x64
     6d2:	f8d6 31d0 	ldr.w	r3, [r6, #464]	; 0x1d0
     6d6:	4620      	mov	r0, r4
     6d8:	685e      	ldr	r6, [r3, #4]
     6da:	436a      	muls	r2, r5
     6dc:	2360      	movs	r3, #96	; 0x60
     6de:	4909      	ldr	r1, [pc, #36]	; (704 <__pi_uart_setrate+0x48>)
     6e0:	47b0      	blx	r6
    ASSERT(UARTBaseValid(ui32Base));

    //
    // Enable the FIFO.
    //
    HWREG(ui32Base + UART_O_LCRH) |= UART_LCRH_FEN;
     6e2:	6ae3      	ldr	r3, [r4, #44]	; 0x2c
}
     6e4:	2001      	movs	r0, #1
     6e6:	f043 0310 	orr.w	r3, r3, #16
     6ea:	62e3      	str	r3, [r4, #44]	; 0x2c

    //
    // Enable RX, TX, and the UART.
    //
    HWREG(ui32Base + UART_O_CTL) |= (UART_CTL_UARTEN | UART_CTL_TXE |
     6ec:	6b23      	ldr	r3, [r4, #48]	; 0x30
     6ee:	f443 7340 	orr.w	r3, r3, #768	; 0x300
     6f2:	f043 0301 	orr.w	r3, r3, #1
     6f6:	6323      	str	r3, [r4, #48]	; 0x30
	urates [0] = rate;
     6f8:	4b03      	ldr	r3, [pc, #12]	; (708 <__pi_uart_setrate+0x4c>)
     6fa:	801d      	strh	r5, [r3, #0]
}
     6fc:	bd70      	pop	{r4, r5, r6, pc}
     6fe:	bf00      	nop
     700:	40001000 	andmi	r1, r0, r0
     704:	02dc6c00 	sbcseq	r6, ip, #0, 24
     708:	20000134 	andcs	r0, r0, r4, lsr r1

0000070c <reinit_uart>:
    ASSERT(UARTBaseValid(ui32Base));

    //
    // Enable the FIFO.
    //
    HWREG(ui32Base + UART_O_LCRH) |= UART_LCRH_FEN;
     70c:	4b07      	ldr	r3, [pc, #28]	; (72c <reinit_uart+0x20>)
	__pi_uart_setrate (urates [0], __pi_uart);
     70e:	4908      	ldr	r1, [pc, #32]	; (730 <reinit_uart+0x24>)
     710:	6ada      	ldr	r2, [r3, #44]	; 0x2c
     712:	f042 0210 	orr.w	r2, r2, #16
     716:	62da      	str	r2, [r3, #44]	; 0x2c
    HWREG(ui32Base + UART_O_IFLS) = ui32TxLevel | ui32RxLevel;
     718:	2212      	movs	r2, #18
     71a:	635a      	str	r2, [r3, #52]	; 0x34
    //
    // Check the arguments.
    //
    ASSERT( UARTBaseValid( ui32Base ));

    HWREG( ui32Base + UART_O_CTL ) &= ~( UART_CTL_CTSEN | UART_CTL_RTSEN );
     71c:	6b1a      	ldr	r2, [r3, #48]	; 0x30
     71e:	f422 4240 	bic.w	r2, r2, #49152	; 0xc000
     722:	631a      	str	r2, [r3, #48]	; 0x30
     724:	4b03      	ldr	r3, [pc, #12]	; (734 <reinit_uart+0x28>)
     726:	8818      	ldrh	r0, [r3, #0]
     728:	f7ff bfc8 	b.w	6bc <__pi_uart_setrate>
     72c:	40001000 	andmi	r1, r0, r0
     730:	20000124 	andcs	r0, r0, r4, lsr #2
     734:	20000134 	andcs	r0, r0, r4, lsr r1

00000738 <ioreq_uart_a>:
	switch (operation) {
     738:	3001      	adds	r0, #1
static int ioreq_uart_a (int operation, char *buf, int len) {
     73a:	e92d 41f0 	stmdb	sp!, {r4, r5, r6, r7, r8, lr}
     73e:	460d      	mov	r5, r1
     740:	4614      	mov	r4, r2
	switch (operation) {
     742:	2803      	cmp	r0, #3
     744:	d86a      	bhi.n	81c <ioreq_uart_a+0xe4>
     746:	e8df f000 	tbb	[pc, r0]
     74a:	5643104d 	strbpl	r1, [r3], -sp, asr #32
				*buf++ = uart_a_read;
     74e:	683b      	ldr	r3, [r7, #0]
				len--;
     750:	3e01      	subs	r6, #1
				*buf++ = uart_a_read;
     752:	f805 3b01 	strb.w	r3, [r5], #1
			while (len && uart_a_char_available) {
     756:	b116      	cbz	r6, 75e <ioreq_uart_a+0x26>
     758:	69bb      	ldr	r3, [r7, #24]
     75a:	06d8      	lsls	r0, r3, #27
     75c:	d5f7      	bpl.n	74e <ioreq_uart_a+0x16>
			if (len != operation) {
     75e:	42a6      	cmp	r6, r4
     760:	d008      	beq.n	774 <ioreq_uart_a+0x3c>
				return operation - len;
     762:	1ba4      	subs	r4, r4, r6
}
     764:	4620      	mov	r0, r4
     766:	e8bd 81f0 	ldmia.w	sp!, {r4, r5, r6, r7, r8, pc}
	switch (operation) {
     76a:	4616      	mov	r6, r2
			uart_a_disable_int;
     76c:	f04f 5880 	mov.w	r8, #268435456	; 0x10000000
			if (uart_a_char_available) {
     770:	4f2c      	ldr	r7, [pc, #176]	; (824 <ioreq_uart_a+0xec>)
     772:	e7f0      	b.n	756 <ioreq_uart_a+0x1e>
			uart_a_disable_int;
     774:	f8d8 31b0 	ldr.w	r3, [r8, #432]	; 0x1b0
     778:	2015      	movs	r0, #21
     77a:	695b      	ldr	r3, [r3, #20]
     77c:	4798      	blx	r3
			if (uart_a_char_available) {
     77e:	69bb      	ldr	r3, [r7, #24]
     780:	06d9      	lsls	r1, r3, #27
     782:	d405      	bmi.n	790 <ioreq_uart_a+0x58>
				uart_a_enable_int;
     784:	f8d8 31b0 	ldr.w	r3, [r8, #432]	; 0x1b0
     788:	2015      	movs	r0, #21
     78a:	691b      	ldr	r3, [r3, #16]
     78c:	4798      	blx	r3
				goto Redo_rx;
     78e:	e7e2      	b.n	756 <ioreq_uart_a+0x1e>
			_BIS (__pi_uart->flags, UART_FLAGS_IN);
     790:	4a25      	ldr	r2, [pc, #148]	; (828 <ioreq_uart_a+0xf0>)
     792:	7993      	ldrb	r3, [r2, #6]
     794:	f043 0380 	orr.w	r3, r3, #128	; 0x80
			return -2;
     798:	f06f 0401 	mvn.w	r4, #1
			_BIS (__pi_uart->flags, UART_FLAGS_OUT);
     79c:	7193      	strb	r3, [r2, #6]
			return -2;
     79e:	e7e1      	b.n	764 <ioreq_uart_a+0x2c>
				uart_a_write (*buf);
     7a0:	f815 3b01 	ldrb.w	r3, [r5], #1
				len--;
     7a4:	3e01      	subs	r6, #1
				uart_a_write (*buf);
     7a6:	603b      	str	r3, [r7, #0]
			while (len && uart_a_room_in_tx) {
     7a8:	b116      	cbz	r6, 7b0 <ioreq_uart_a+0x78>
     7aa:	69bb      	ldr	r3, [r7, #24]
     7ac:	069a      	lsls	r2, r3, #26
     7ae:	d5f7      	bpl.n	7a0 <ioreq_uart_a+0x68>
			if (len != operation) {
     7b0:	42a6      	cmp	r6, r4
     7b2:	d1d6      	bne.n	762 <ioreq_uart_a+0x2a>
			uart_a_disable_int;
     7b4:	f8d8 31b0 	ldr.w	r3, [r8, #432]	; 0x1b0
     7b8:	2015      	movs	r0, #21
     7ba:	695b      	ldr	r3, [r3, #20]
     7bc:	4798      	blx	r3
			if (uart_a_room_in_tx) {
     7be:	69bb      	ldr	r3, [r7, #24]
     7c0:	069b      	lsls	r3, r3, #26
     7c2:	d40a      	bmi.n	7da <ioreq_uart_a+0xa2>
				uart_a_enable_int;
     7c4:	f8d8 31b0 	ldr.w	r3, [r8, #432]	; 0x1b0
     7c8:	2015      	movs	r0, #21
     7ca:	691b      	ldr	r3, [r3, #16]
     7cc:	4798      	blx	r3
				goto Redo_tx;
     7ce:	e7eb      	b.n	7a8 <ioreq_uart_a+0x70>
	switch (operation) {
     7d0:	4616      	mov	r6, r2
			uart_a_disable_int;
     7d2:	f04f 5880 	mov.w	r8, #268435456	; 0x10000000
			if (uart_a_room_in_tx) {
     7d6:	4f13      	ldr	r7, [pc, #76]	; (824 <ioreq_uart_a+0xec>)
     7d8:	e7e6      	b.n	7a8 <ioreq_uart_a+0x70>
			_BIS (__pi_uart->flags, UART_FLAGS_OUT);
     7da:	4a13      	ldr	r2, [pc, #76]	; (828 <ioreq_uart_a+0xf0>)
     7dc:	7993      	ldrb	r3, [r2, #6]
     7de:	f043 0340 	orr.w	r3, r3, #64	; 0x40
     7e2:	e7d9      	b.n	798 <ioreq_uart_a+0x60>
			uart_a_enable_int;
     7e4:	f04f 5380 	mov.w	r3, #268435456	; 0x10000000
     7e8:	f8d3 31b0 	ldr.w	r3, [r3, #432]	; 0x1b0
     7ec:	2015      	movs	r0, #21
     7ee:	691b      	ldr	r3, [r3, #16]
     7f0:	4798      	blx	r3
			return 0;
     7f2:	2400      	movs	r4, #0
     7f4:	e7b6      	b.n	764 <ioreq_uart_a+0x2c>
			if (len == UART_CNTRL_SETRATE) {
     7f6:	2a01      	cmp	r2, #1
     7f8:	d109      	bne.n	80e <ioreq_uart_a+0xd6>
				if (__pi_uart_setrate (*((word*)buf),
     7fa:	490b      	ldr	r1, [pc, #44]	; (828 <ioreq_uart_a+0xf0>)
     7fc:	8828      	ldrh	r0, [r5, #0]
     7fe:	f7ff ff5d 	bl	6bc <__pi_uart_setrate>
     802:	2800      	cmp	r0, #0
     804:	d1ae      	bne.n	764 <ioreq_uart_a+0x2c>
				syserror (EREQPAR, "uar");
     806:	2003      	movs	r0, #3
     808:	4908      	ldr	r1, [pc, #32]	; (82c <ioreq_uart_a+0xf4>)
			syserror (ENOOPER, "uai");
     80a:	f7ff fe3f 	bl	48c <__pi_syserror>
			if (len == UART_CNTRL_GETRATE) {
     80e:	2a02      	cmp	r2, #2
     810:	d104      	bne.n	81c <ioreq_uart_a+0xe4>
	return urates [0];
     812:	4b07      	ldr	r3, [pc, #28]	; (830 <ioreq_uart_a+0xf8>)
				return 1;
     814:	2401      	movs	r4, #1
				*((word*)buf) = __pi_uart_getrate (__pi_uart);
     816:	881b      	ldrh	r3, [r3, #0]
     818:	800b      	strh	r3, [r1, #0]
				return 1;
     81a:	e7a3      	b.n	764 <ioreq_uart_a+0x2c>
			syserror (ENOOPER, "uai");
     81c:	2002      	movs	r0, #2
     81e:	4905      	ldr	r1, [pc, #20]	; (834 <ioreq_uart_a+0xfc>)
     820:	e7f3      	b.n	80a <ioreq_uart_a+0xd2>
     822:	bf00      	nop
     824:	40001000 	andmi	r1, r0, r0
     828:	20000124 	andcs	r0, r0, r4, lsr #2
     82c:	000042a1 	andeq	r4, r0, r1, lsr #5
     830:	20000134 	andcs	r0, r0, r4, lsr r1
     834:	000042a5 	andeq	r4, r0, r5, lsr #5

00000838 <UART0IntHandler>:
    HWREG(ui32Base + UART_O_ICR) = ui32IntFlags;
     838:	f240 72f2 	movw	r2, #2034	; 0x7f2
}

void UART0IntHandler () {
     83c:	b530      	push	{r4, r5, lr}
     83e:	4b29      	ldr	r3, [pc, #164]	; (8e4 <UART0IntHandler+0xac>)
     840:	645a      	str	r2, [r3, #68]	; 0x44

	uart_a_clear_interrupts;

	if (uart_a_char_available && (__pi_uart->flags & UART_FLAGS_IN)) {
     842:	699b      	ldr	r3, [r3, #24]
     844:	06dc      	lsls	r4, r3, #27
     846:	d423      	bmi.n	890 <UART0IntHandler+0x58>
     848:	4b27      	ldr	r3, [pc, #156]	; (8e8 <UART0IntHandler+0xb0>)
     84a:	799a      	ldrb	r2, [r3, #6]
     84c:	0610      	lsls	r0, r2, #24
     84e:	d51f      	bpl.n	890 <UART0IntHandler+0x58>
		_BIC (__pi_uart->flags, UART_FLAGS_IN);
     850:	799a      	ldrb	r2, [r3, #6]
     852:	f002 027f 	and.w	r2, r2, #127	; 0x7f
     856:	719a      	strb	r2, [r3, #6]
		RISE_N_SHINE;
     858:	4a24      	ldr	r2, [pc, #144]	; (8ec <UART0IntHandler+0xb4>)
     85a:	7813      	ldrb	r3, [r2, #0]
     85c:	f043 0302 	orr.w	r3, r3, #2
     860:	7013      	strb	r3, [r2, #0]
		i_trigger (devevent (UART_A, READ));
     862:	4b23      	ldr	r3, [pc, #140]	; (8f0 <UART0IntHandler+0xb8>)
     864:	681a      	ldr	r2, [r3, #0]
     866:	b19a      	cbz	r2, 890 <UART0IntHandler+0x58>
     868:	4610      	mov	r0, r2
     86a:	2300      	movs	r3, #0
     86c:	f830 1b10 	ldrh.w	r1, [r0], #16
     870:	f001 0107 	and.w	r1, r1, #7
     874:	4299      	cmp	r1, r3
     876:	dd09      	ble.n	88c <UART0IntHandler+0x54>
     878:	f850 4033 	ldr.w	r4, [r0, r3, lsl #3]
     87c:	3301      	adds	r3, #1
     87e:	f514 7f81 	cmn.w	r4, #258	; 0x102
     882:	d1f7      	bne.n	874 <UART0IntHandler+0x3c>
     884:	eb02 03c3 	add.w	r3, r2, r3, lsl #3
     888:	889b      	ldrh	r3, [r3, #4]
     88a:	8013      	strh	r3, [r2, #0]
     88c:	6ad2      	ldr	r2, [r2, #44]	; 0x2c
     88e:	e7ea      	b.n	866 <UART0IntHandler+0x2e>
	}

	if (uart_a_room_in_tx && (__pi_uart->flags & UART_FLAGS_OUT)) {
     890:	4b14      	ldr	r3, [pc, #80]	; (8e4 <UART0IntHandler+0xac>)
     892:	699b      	ldr	r3, [r3, #24]
     894:	0699      	lsls	r1, r3, #26
     896:	d424      	bmi.n	8e2 <UART0IntHandler+0xaa>
     898:	4b13      	ldr	r3, [pc, #76]	; (8e8 <UART0IntHandler+0xb0>)
     89a:	799a      	ldrb	r2, [r3, #6]
     89c:	0652      	lsls	r2, r2, #25
     89e:	d520      	bpl.n	8e2 <UART0IntHandler+0xaa>
		_BIC (__pi_uart->flags, UART_FLAGS_OUT);
		RISE_N_SHINE;
		i_trigger (devevent (UART_A, WRITE));
     8a0:	f46f 7480 	mvn.w	r4, #256	; 0x100
		_BIC (__pi_uart->flags, UART_FLAGS_OUT);
     8a4:	799a      	ldrb	r2, [r3, #6]
     8a6:	f002 02bf 	and.w	r2, r2, #191	; 0xbf
     8aa:	719a      	strb	r2, [r3, #6]
		RISE_N_SHINE;
     8ac:	4a0f      	ldr	r2, [pc, #60]	; (8ec <UART0IntHandler+0xb4>)
     8ae:	7813      	ldrb	r3, [r2, #0]
     8b0:	f043 0302 	orr.w	r3, r3, #2
     8b4:	7013      	strb	r3, [r2, #0]
		i_trigger (devevent (UART_A, WRITE));
     8b6:	4b0e      	ldr	r3, [pc, #56]	; (8f0 <UART0IntHandler+0xb8>)
     8b8:	681a      	ldr	r2, [r3, #0]
     8ba:	b192      	cbz	r2, 8e2 <UART0IntHandler+0xaa>
     8bc:	4610      	mov	r0, r2
     8be:	2300      	movs	r3, #0
     8c0:	f830 1b10 	ldrh.w	r1, [r0], #16
     8c4:	f001 0107 	and.w	r1, r1, #7
     8c8:	4299      	cmp	r1, r3
     8ca:	dd08      	ble.n	8de <UART0IntHandler+0xa6>
     8cc:	f850 5033 	ldr.w	r5, [r0, r3, lsl #3]
     8d0:	3301      	adds	r3, #1
     8d2:	42a5      	cmp	r5, r4
     8d4:	d1f8      	bne.n	8c8 <UART0IntHandler+0x90>
     8d6:	eb02 03c3 	add.w	r3, r2, r3, lsl #3
     8da:	889b      	ldrh	r3, [r3, #4]
     8dc:	8013      	strh	r3, [r2, #0]
     8de:	6ad2      	ldr	r2, [r2, #44]	; 0x2c
     8e0:	e7eb      	b.n	8ba <UART0IntHandler+0x82>
	}

	RTNI;
}
     8e2:	bd30      	pop	{r4, r5, pc}
     8e4:	40001000 	andmi	r1, r0, r0
     8e8:	20000124 	andcs	r0, r0, r4, lsr #2
     8ec:	20000148 	andcs	r0, r0, r8, asr #2
     8f0:	20000138 	andcs	r0, r0, r8, lsr r1

000008f4 <__buttons_setirq>:

// ============================================================================

#ifdef	BUTTON_LIST

void __buttons_setirq (int val) {
     8f4:	b570      	push	{r4, r5, r6, lr}
     8f6:	b672      	cpsid	i
    ASSERT( dioNumberLegal( dioNumber ));

    //
    // Clear the event status for the specified DIO.
    //
    HWREG( GPIO_BASE + GPIO_O_EVFLAGS31_0 ) = ( 1 << dioNumber );
     8f8:	2101      	movs	r1, #1
	int i;
	lword bn;

	cli;
	for (i = 0; i < N_BUTTONS; i++) {
		bn = BUTTON_GPIO (__button_list [i]);
     8fa:	4e0d      	ldr	r6, [pc, #52]	; (930 <__buttons_setirq+0x3c>)
     8fc:	4d0d      	ldr	r5, [pc, #52]	; (934 <__buttons_setirq+0x40>)
     8fe:	8833      	ldrh	r3, [r6, #0]
		GPIO_clearEventDio (bn);
		HWREGBITW (IOC_BASE + (bn << 2), IOC_IOCFG0_EDGE_IRQ_EN_BITN) =
     900:	4c0d      	ldr	r4, [pc, #52]	; (938 <__buttons_setirq+0x44>)
		bn = BUTTON_GPIO (__button_list [i]);
     902:	0a1b      	lsrs	r3, r3, #8
     904:	fa01 f203 	lsl.w	r2, r1, r3
     908:	f8c5 20e0 	str.w	r2, [r5, #224]	; 0xe0
		HWREGBITW (IOC_BASE + (bn << 2), IOC_IOCFG0_EDGE_IRQ_EN_BITN) =
     90c:	01da      	lsls	r2, r3, #7
		bn = BUTTON_GPIO (__button_list [i]);
     90e:	8873      	ldrh	r3, [r6, #2]
		HWREGBITW (IOC_BASE + (bn << 2), IOC_IOCFG0_EDGE_IRQ_EN_BITN) =
     910:	f102 7281 	add.w	r2, r2, #16908288	; 0x1020000
		bn = BUTTON_GPIO (__button_list [i]);
     914:	0a1b      	lsrs	r3, r3, #8
     916:	4099      	lsls	r1, r3
		HWREGBITW (IOC_BASE + (bn << 2), IOC_IOCFG0_EDGE_IRQ_EN_BITN) =
     918:	01db      	lsls	r3, r3, #7
     91a:	f103 7381 	add.w	r3, r3, #16908288	; 0x1020000
     91e:	4322      	orrs	r2, r4
     920:	4323      	orrs	r3, r4
     922:	6010      	str	r0, [r2, #0]
     924:	f8c5 10e0 	str.w	r1, [r5, #224]	; 0xe0
     928:	6018      	str	r0, [r3, #0]
  __ASM volatile ("cpsie i" : : : "memory");
     92a:	b662      	cpsie	i
			val;
	}
	sti;
}
     92c:	bd70      	pop	{r4, r5, r6, pc}
     92e:	bf00      	nop
     930:	0000442e 	andeq	r4, r0, lr, lsr #8
     934:	40022000 	andmi	r2, r2, r0
     938:	42000048 	andmi	r0, r0, #72	; 0x48

0000093c <__pinlist_setirq>:

#endif

#ifdef	INPUT_PIN_LIST

void __pinlist_setirq (int val) {
     93c:	b5f0      	push	{r4, r5, r6, r7, lr}
  __ASM volatile ("cpsid i" : : : "memory");
     93e:	b672      	cpsid	i

	int i;
	lword bn;

	cli;
	for (i = 0; i < N_PINLIST; i++) {
     940:	2200      	movs	r2, #0
     942:	2601      	movs	r6, #1
		bn = INPUT_PINLIST_GPIO (__input_pins [i]);
     944:	4f09      	ldr	r7, [pc, #36]	; (96c <__pinlist_setirq+0x30>)
     946:	4c0a      	ldr	r4, [pc, #40]	; (970 <__pinlist_setirq+0x34>)
		GPIO_clearEventDio (bn);
		HWREGBITW (IOC_BASE + (bn << 2), IOC_IOCFG0_EDGE_IRQ_EN_BITN) =
     948:	490a      	ldr	r1, [pc, #40]	; (974 <__pinlist_setirq+0x38>)
		bn = INPUT_PINLIST_GPIO (__input_pins [i]);
     94a:	5cbb      	ldrb	r3, [r7, r2]
	for (i = 0; i < N_PINLIST; i++) {
     94c:	3201      	adds	r2, #1
		bn = INPUT_PINLIST_GPIO (__input_pins [i]);
     94e:	f003 037f 	and.w	r3, r3, #127	; 0x7f
     952:	fa06 f503 	lsl.w	r5, r6, r3
		HWREGBITW (IOC_BASE + (bn << 2), IOC_IOCFG0_EDGE_IRQ_EN_BITN) =
     956:	01db      	lsls	r3, r3, #7
     958:	f103 7381 	add.w	r3, r3, #16908288	; 0x1020000
     95c:	430b      	orrs	r3, r1
	for (i = 0; i < N_PINLIST; i++) {
     95e:	2a04      	cmp	r2, #4
     960:	f8c4 50e0 	str.w	r5, [r4, #224]	; 0xe0
		HWREGBITW (IOC_BASE + (bn << 2), IOC_IOCFG0_EDGE_IRQ_EN_BITN) =
     964:	6018      	str	r0, [r3, #0]
	for (i = 0; i < N_PINLIST; i++) {
     966:	d1f0      	bne.n	94a <__pinlist_setirq+0xe>
  __ASM volatile ("cpsie i" : : : "memory");
     968:	b662      	cpsie	i
			val;
	}
	sti;
}
     96a:	bdf0      	pop	{r4, r5, r6, r7, pc}
     96c:	00004429 	andeq	r4, r0, r9, lsr #8
     970:	40022000 	andmi	r2, r2, r0
     974:	42000048 	andmi	r0, r0, #72	; 0x48

00000978 <GPIOIntHandler>:
void GPIOIntHandler () {
     978:	b538      	push	{r3, r4, r5, lr}
if (buttons_int) {
     97a:	4b25      	ldr	r3, [pc, #148]	; (a10 <GPIOIntHandler+0x98>)
     97c:	f8d3 30e0 	ldr.w	r3, [r3, #224]	; 0xe0
     980:	f413 4fc0 	tst.w	r3, #24576	; 0x6000
     984:	d01e      	beq.n	9c4 <GPIOIntHandler+0x4c>
	buttons_disable ();
     986:	2000      	movs	r0, #0
     988:	f7ff ffb4 	bl	8f4 <__buttons_setirq>
	i_trigger ((aword)&__button_list);
     98c:	4b21      	ldr	r3, [pc, #132]	; (a14 <GPIOIntHandler+0x9c>)
     98e:	4c22      	ldr	r4, [pc, #136]	; (a18 <GPIOIntHandler+0xa0>)
     990:	681a      	ldr	r2, [r3, #0]
     992:	b192      	cbz	r2, 9ba <GPIOIntHandler+0x42>
     994:	4610      	mov	r0, r2
     996:	2300      	movs	r3, #0
     998:	f830 1b10 	ldrh.w	r1, [r0], #16
     99c:	f001 0107 	and.w	r1, r1, #7
     9a0:	4299      	cmp	r1, r3
     9a2:	dd08      	ble.n	9b6 <GPIOIntHandler+0x3e>
     9a4:	f850 5033 	ldr.w	r5, [r0, r3, lsl #3]
     9a8:	3301      	adds	r3, #1
     9aa:	42a5      	cmp	r5, r4
     9ac:	d1f8      	bne.n	9a0 <GPIOIntHandler+0x28>
     9ae:	eb02 03c3 	add.w	r3, r2, r3, lsl #3
     9b2:	889b      	ldrh	r3, [r3, #4]
     9b4:	8013      	strh	r3, [r2, #0]
     9b6:	6ad2      	ldr	r2, [r2, #44]	; 0x2c
     9b8:	e7eb      	b.n	992 <GPIOIntHandler+0x1a>
	RISE_N_SHINE;
     9ba:	4a18      	ldr	r2, [pc, #96]	; (a1c <GPIOIntHandler+0xa4>)
     9bc:	7813      	ldrb	r3, [r2, #0]
     9be:	f043 0302 	orr.w	r3, r3, #2
     9c2:	7013      	strb	r3, [r2, #0]
if (pin_sensor_int) {
     9c4:	4b12      	ldr	r3, [pc, #72]	; (a10 <GPIOIntHandler+0x98>)
     9c6:	f8d3 30e0 	ldr.w	r3, [r3, #224]	; 0xe0
     9ca:	f013 5ff0 	tst.w	r3, #503316480	; 0x1e000000
     9ce:	d01d      	beq.n	a0c <GPIOIntHandler+0x94>
	i_trigger ((aword)(&__input_pins));
     9d0:	4b10      	ldr	r3, [pc, #64]	; (a14 <GPIOIntHandler+0x9c>)
     9d2:	4c13      	ldr	r4, [pc, #76]	; (a20 <GPIOIntHandler+0xa8>)
     9d4:	6818      	ldr	r0, [r3, #0]
     9d6:	b190      	cbz	r0, 9fe <GPIOIntHandler+0x86>
     9d8:	4601      	mov	r1, r0
     9da:	2300      	movs	r3, #0
     9dc:	f831 2b10 	ldrh.w	r2, [r1], #16
     9e0:	f002 0207 	and.w	r2, r2, #7
     9e4:	429a      	cmp	r2, r3
     9e6:	dd08      	ble.n	9fa <GPIOIntHandler+0x82>
     9e8:	f851 5033 	ldr.w	r5, [r1, r3, lsl #3]
     9ec:	3301      	adds	r3, #1
     9ee:	42a5      	cmp	r5, r4
     9f0:	d1f8      	bne.n	9e4 <GPIOIntHandler+0x6c>
     9f2:	eb00 03c3 	add.w	r3, r0, r3, lsl #3
     9f6:	889b      	ldrh	r3, [r3, #4]
     9f8:	8003      	strh	r3, [r0, #0]
     9fa:	6ac0      	ldr	r0, [r0, #44]	; 0x2c
     9fc:	e7eb      	b.n	9d6 <GPIOIntHandler+0x5e>
	__pinsen_disable_and_clear;
     9fe:	f7ff ff9d 	bl	93c <__pinlist_setirq>
	RISE_N_SHINE;
     a02:	4a06      	ldr	r2, [pc, #24]	; (a1c <GPIOIntHandler+0xa4>)
     a04:	7813      	ldrb	r3, [r2, #0]
     a06:	f043 0302 	orr.w	r3, r3, #2
     a0a:	7013      	strb	r3, [r2, #0]
}
     a0c:	bd38      	pop	{r3, r4, r5, pc}
     a0e:	bf00      	nop
     a10:	40022000 	andmi	r2, r2, r0
     a14:	20000138 	andcs	r0, r0, r8, lsr r1
     a18:	0000442e 	andeq	r4, r0, lr, lsr #8
     a1c:	20000148 	andcs	r0, r0, r8, asr #2
     a20:	00004429 	andeq	r4, r0, r9, lsr #8

00000a24 <system_init>:
#endif

// ============================================================================
// ============================================================================

void system_init () {
     a24:	e92d 41f0 	stmdb	sp!, {r4, r5, r6, r7, r8, lr}

	__pi_ondomain (PRCM_DOMAIN_PERIPH);

	PRCMPeripheralRunEnable (PRCM_PERIPH_GPIO);
     a28:	f04f 5480 	mov.w	r4, #268435456	; 0x10000000
	__pi_ondomain (PRCM_DOMAIN_PERIPH);
     a2c:	2004      	movs	r0, #4
     a2e:	f7ff fceb 	bl	408 <__pi_ondomain>
	PRCMPeripheralRunEnable (PRCM_PERIPH_GPIO);
     a32:	f8d4 31b8 	ldr.w	r3, [r4, #440]	; 0x1b8
     a36:	f44f 60a0 	mov.w	r0, #1280	; 0x500
     a3a:	69db      	ldr	r3, [r3, #28]
     a3c:	4798      	blx	r3
	PRCMPeripheralSleepEnable (PRCM_PERIPH_GPIO);
     a3e:	f8d4 31b8 	ldr.w	r3, [r4, #440]	; 0x1b8
     a42:	f44f 60a0 	mov.w	r0, #1280	; 0x500
     a46:	6a5b      	ldr	r3, [r3, #36]	; 0x24
     a48:	4798      	blx	r3
	PRCMPeripheralDeepSleepEnable (PRCM_PERIPH_GPIO);
     a4a:	f8d4 31b8 	ldr.w	r3, [r4, #440]	; 0x1b8
     a4e:	f44f 60a0 	mov.w	r0, #1280	; 0x500
     a52:	6adb      	ldr	r3, [r3, #44]	; 0x2c
PRCMLoadSet(void)
{
    //
    // Enable the update of all load related registers.
    //
    HWREG(PRCM_NONBUF_BASE + PRCM_O_CLKLOADCTL) = PRCM_CLKLOADCTL_LOAD;
     a54:	2501      	movs	r5, #1
     a56:	4798      	blx	r3
	for (int i = 0; i < sizeof (port_confs) / sizeof (lword); i++) {
     a58:	2000      	movs	r0, #0
     a5a:	4b50      	ldr	r3, [pc, #320]	; (b9c <system_init+0x178>)
     a5c:	4f50      	ldr	r7, [pc, #320]	; (ba0 <system_init+0x17c>)
		HWREG (IOC_BASE + (pin << 2)) = port_confs [i] & 0x7f077f3f;
     a5e:	f8df c144 	ldr.w	ip, [pc, #324]	; ba4 <system_init+0x180>
    HWREGBITW( GPIO_BASE + GPIO_O_DOE31_0, dioNumber ) = outputEnableValue;
     a62:	f8df e144 	ldr.w	lr, [pc, #324]	; ba8 <system_init+0x184>
     a66:	4c51      	ldr	r4, [pc, #324]	; (bac <system_init+0x188>)
     a68:	629d      	str	r5, [r3, #40]	; 0x28
		pin = (port_confs [i] >> 19) & 0x1f;
     a6a:	f857 2b04 	ldr.w	r2, [r7], #4
	for (int i = 0; i < sizeof (port_confs) / sizeof (lword); i++) {
     a6e:	3001      	adds	r0, #1
		pin = (port_confs [i] >> 19) & 0x1f;
     a70:	f3c2 43c4 	ubfx	r3, r2, #19, #5
		HWREG (IOC_BASE + (pin << 2)) = port_confs [i] & 0x7f077f3f;
     a74:	0099      	lsls	r1, r3, #2
     a76:	f101 4680 	add.w	r6, r1, #1073741824	; 0x40000000
     a7a:	f506 2601 	add.w	r6, r6, #528384	; 0x81000
     a7e:	ea02 080c 	and.w	r8, r2, ip
     a82:	f8c6 8000 	str.w	r8, [r6]
		if (port_confs [i] & 0x80)
     a86:	0616      	lsls	r6, r2, #24
     a88:	bf44      	itt	mi
     a8a:	ea41 010e 	orrmi.w	r1, r1, lr
     a8e:	600d      	strmi	r5, [r1, #0]
    HWREG( GPIO_BASE + GPIO_O_DOUTSET31_0 ) = ( 1 << dioNumber );
     a90:	fa05 f303 	lsl.w	r3, r5, r3
		if (port_confs [i] & 0x40)
     a94:	0652      	lsls	r2, r2, #25
     a96:	bf4c      	ite	mi
     a98:	f8c4 3090 	strmi.w	r3, [r4, #144]	; 0x90
    HWREG( GPIO_BASE + GPIO_O_DOUTCLR31_0 ) = ( 1 << dioNumber );
     a9c:	f8c4 30a0 	strpl.w	r3, [r4, #160]	; 0xa0
	for (int i = 0; i < sizeof (port_confs) / sizeof (lword); i++) {
     aa0:	2811      	cmp	r0, #17
     aa2:	d1e2      	bne.n	a6a <system_init+0x46>
    HWREG( GPIO_BASE + GPIO_O_DOUTSET31_0 ) = ( 1 << dioNumber );
     aa4:	2540      	movs	r5, #64	; 0x40
     aa6:	2680      	movs	r6, #128	; 0x80

	// Initialize DIO ports
	port_config ();

#if	LEDS_DRIVER
	all_leds_blink;
     aa8:	4941      	ldr	r1, [pc, #260]	; (bb0 <system_init+0x18c>)
     aaa:	f8c4 5090 	str.w	r5, [r4, #144]	; 0x90
     aae:	f8c4 6090 	str.w	r6, [r4, #144]	; 0x90
     ab2:	780b      	ldrb	r3, [r1, #0]
     ab4:	780b      	ldrb	r3, [r1, #0]
     ab6:	20c8      	movs	r0, #200	; 0xc8
     ab8:	f36f 1307 	bfc	r3, #4, #4
     abc:	700b      	strb	r3, [r1, #0]
     abe:	f7ff fc8d 	bl	3dc <mdelay>
    HWREG( GPIO_BASE + GPIO_O_DOUTCLR31_0 ) = ( 1 << dioNumber );
     ac2:	f8c4 50a0 	str.w	r5, [r4, #160]	; 0xa0
     ac6:	f8c4 60a0 	str.w	r6, [r4, #160]	; 0xa0
     aca:	780b      	ldrb	r3, [r1, #0]
     acc:	780b      	ldrb	r3, [r1, #0]
//
//*****************************************************************************
__STATIC_INLINE void
AONRTCIncValueCh2Set(uint32_t ui32IncValue)
{
    HWREG(AON_RTC_BASE + AON_RTC_O_CH2CMPINC) = ui32IncValue;
     ace:	4e39      	ldr	r6, [pc, #228]	; (bb4 <system_init+0x190>)
     ad0:	f36f 1307 	bfc	r3, #4, #4
     ad4:	20c8      	movs	r0, #200	; 0xc8
     ad6:	700b      	strb	r3, [r1, #0]
     ad8:	f7ff fc80 	bl	3dc <mdelay>
     adc:	6275      	str	r5, [r6, #36]	; 0x24

	// The autoincrement value on channel 2 set to 1 msec
	AONRTCIncValueCh2Set (TCI_TINCR (1));
	// Enable continuous operation of channel 2
	HWREGBITW (AON_RTC_BASE + AON_RTC_O_CHCTL,
		AON_RTC_CHCTL_CH2_CONT_EN_BITN) = 1;
     ade:	2501      	movs	r5, #1
		// For the radio
		AON_RTC_CTL_RTC_UPD_EN |
		AON_RTC_CTL_EN;

	// Enable RTC interrupts
	IntEnable (INT_AON_RTC_COMB);
     ae0:	f04f 5480 	mov.w	r4, #268435456	; 0x10000000
		AON_RTC_CHCTL_CH2_CONT_EN_BITN) = 1;
     ae4:	4b34      	ldr	r3, [pc, #208]	; (bb8 <system_init+0x194>)
	IntEnable (INT_AON_RTC_COMB);
     ae6:	2014      	movs	r0, #20
		AON_RTC_CHCTL_CH2_CONT_EN_BITN) = 1;
     ae8:	f8c3 52c8 	str.w	r5, [r3, #712]	; 0x2c8
	HWREG (AON_RTC_BASE + AON_RTC_O_CTL) =
     aec:	4b33      	ldr	r3, [pc, #204]	; (bbc <system_init+0x198>)
     aee:	6033      	str	r3, [r6, #0]
	IntEnable (INT_AON_RTC_COMB);
     af0:	f8d4 31b0 	ldr.w	r3, [r4, #432]	; 0x1b0
     af4:	691b      	ldr	r3, [r3, #16]
     af6:	4798      	blx	r3

	// Initialize the memory allocator
	__pi_malloc_init ();
     af8:	f000 fbc0 	bl	127c <__pi_malloc_init>

	// Enable GPIO interrupts
	IntEnable (INT_AON_GPIO_EDGE);
     afc:	f8d4 31b0 	ldr.w	r3, [r4, #432]	; 0x1b0
     b00:	2010      	movs	r0, #16
     b02:	691b      	ldr	r3, [r3, #16]
     b04:	4798      	blx	r3
		EMERGENCY_STARTUP_ACTION;
	}
#endif

#ifdef	NEED_SERIAL_DOMAIN
	__pi_ondomain (PRCM_DOMAIN_SERIAL);
     b06:	2002      	movs	r0, #2
     b08:	f7ff fc7e 	bl	408 <__pi_ondomain>
	PRCMPeripheralRunEnable (PRCM_PERIPH_UART0);
     b0c:	f8d4 31b8 	ldr.w	r3, [r4, #440]	; 0x1b8
     b10:	f44f 7000 	mov.w	r0, #512	; 0x200
     b14:	69db      	ldr	r3, [r3, #28]
     b16:	4798      	blx	r3
	PRCMPeripheralSleepEnable (PRCM_PERIPH_UART0);
     b18:	f8d4 31b8 	ldr.w	r3, [r4, #440]	; 0x1b8
     b1c:	f44f 7000 	mov.w	r0, #512	; 0x200
     b20:	6a5b      	ldr	r3, [r3, #36]	; 0x24
     b22:	4798      	blx	r3
	PRCMPeripheralDeepSleepEnable (PRCM_PERIPH_UART0);
     b24:	f8d4 31b8 	ldr.w	r3, [r4, #440]	; 0x1b8
     b28:	f44f 7000 	mov.w	r0, #512	; 0x200
     b2c:	6adb      	ldr	r3, [r3, #44]	; 0x2c
     b2e:	4798      	blx	r3
	urates [0] = UART_RATE / 100;
     b30:	2260      	movs	r2, #96	; 0x60
     b32:	4b1a      	ldr	r3, [pc, #104]	; (b9c <system_init+0x178>)
     b34:	629d      	str	r5, [r3, #40]	; 0x28
     b36:	4b22      	ldr	r3, [pc, #136]	; (bc0 <system_init+0x19c>)
     b38:	801a      	strh	r2, [r3, #0]
	reinit_uart ();
     b3a:	f7ff fde7 	bl	70c <reinit_uart>
	__pi_init_actuators ();
#endif

#ifdef	EXTRA_INITIALIZERS
	// Extra initialization
	EXTRA_INITIALIZERS;
     b3e:	f001 f929 	bl	1d94 <ee_open>
     b42:	f001 f931 	bl	1da8 <ee_close>
#endif
	// If waking from shutdown, unfreeze the I/O
	if (SysCtrlResetSourceGet () == RSTSRC_WAKEUP_FROM_SHUTDOWN) {
     b46:	f003 f9c7 	bl	3ed8 <NOROM_SysCtrlResetSourceGet>
     b4a:	2808      	cmp	r0, #8
     b4c:	d118      	bne.n	b80 <system_init+0x15c>
AONIOCFreezeDisable(void)
{
    //
    // Set the AON IOC latches as transparent.
    //
    HWREG(AON_IOC_BASE + AON_IOC_O_IOCLATCH) = AON_IOC_IOCLATCH_EN;
     b4e:	4b1d      	ldr	r3, [pc, #116]	; (bc4 <system_init+0x1a0>)
     b50:	60dd      	str	r5, [r3, #12]
{
    //
    // Open the IO latches at AON_IOC level and in the padring
    //
    AONIOCFreezeDisable();
    HWREG(AON_SYSCTL_BASE + AON_SYSCTL_O_SLEEPCTL) = 1;
     b52:	f5a3 4380 	sub.w	r3, r3, #16384	; 0x4000
     b56:	609d      	str	r5, [r3, #8]
    HWREG(AON_RTC_BASE + AON_RTC_O_SYNC);
     b58:	6af3      	ldr	r3, [r6, #44]	; 0x2c
	}

#if	MAX_DEVICES
	for (int i = UART; i < MAX_DEVICES; i++)
		if (devinit [i] . init != NULL)
			devinit [i] . init (devinit [i] . param);
     b5a:	2000      	movs	r0, #0
     b5c:	f7ff fc22 	bl	3a4 <devinit_uart>
    HWREG(ui32Base + UART_O_IMSC) |= ui32IntFlags;
     b60:	4a19      	ldr	r2, [pc, #100]	; (bc8 <system_init+0x1a4>)
#endif

#ifdef	N_UARTS
	// The same for UART_DRIVER and UART_TCV
	enable_uart_interrupts ();
	IntEnable (INT_UART0_COMB);
     b62:	2015      	movs	r0, #21
     b64:	6b93      	ldr	r3, [r2, #56]	; 0x38
     b66:	f043 0370 	orr.w	r3, r3, #112	; 0x70
     b6a:	6393      	str	r3, [r2, #56]	; 0x38
     b6c:	f04f 5380 	mov.w	r3, #268435456	; 0x10000000
     b70:	f8d3 31b0 	ldr.w	r3, [r3, #432]	; 0x1b0
     b74:	691b      	ldr	r3, [r3, #16]
     b76:	4798      	blx	r3
#endif
	// Kick the auxiliary timer in case something is needed by the
	// drivers
	tci_run_auxiliary_timer ();
}
     b78:	e8bd 41f0 	ldmia.w	sp!, {r4, r5, r6, r7, r8, lr}
	tci_run_auxiliary_timer ();
     b7c:	f7ff bcd2 	b.w	524 <tci_run_auxiliary_timer>
		diag ("");
     b80:	4812      	ldr	r0, [pc, #72]	; (bcc <system_init+0x1a8>)
     b82:	f000 fc69 	bl	1458 <diag>
		diag ("PicOS v" SYSVER_S "/" SYSVER_R
     b86:	4812      	ldr	r0, [pc, #72]	; (bd0 <system_init+0x1ac>)
     b88:	f000 fc66 	bl	1458 <diag>
			(word)((aword)STACK_END - (aword)(&__bss_end__)));
     b8c:	4911      	ldr	r1, [pc, #68]	; (bd4 <system_init+0x1b0>)
		diag ("Leftover RAM: %d bytes",
     b8e:	4812      	ldr	r0, [pc, #72]	; (bd8 <system_init+0x1b4>)
     b90:	f5c1 4198 	rsb	r1, r1, #19456	; 0x4c00
     b94:	b289      	uxth	r1, r1
     b96:	f000 fc5f 	bl	1458 <diag>
     b9a:	e7de      	b.n	b5a <system_init+0x136>
     b9c:	60082000 	andvs	r2, r8, r0
     ba0:	00004310 	andeq	r4, r0, r0, lsl r3
     ba4:	7f077f3f 	svcvc	0x00077f3f
     ba8:	42441a00 	submi	r1, r4, #0, 20
     bac:	40022000 	andmi	r2, r2, r0
     bb0:	20000148 	andcs	r0, r0, r8, asr #2
     bb4:	40092000 	andmi	r2, r9, r0
     bb8:	43240000 			; <UNDEFINED> instruction: 0x43240000
     bbc:	00050003 	andeq	r0, r5, r3
     bc0:	20000134 	andcs	r0, r0, r4, lsr r1
     bc4:	40094000 	andmi	r4, r9, r0
     bc8:	40001000 	andmi	r1, r0, r0
     bcc:	00004193 	muleq	r0, r3, r1
     bd0:	000042a9 	andeq	r4, r0, r9, lsr #5
     bd4:	2000023c 	andcs	r0, r0, ip, lsr r2
     bd8:	000042f5 	strdeq	r4, [r0], -r5

00000bdc <__pi_release>:
	return sc;
}

#endif

__attribute__ ((noreturn)) void __pi_release () {
     bdc:	e92d 4888 	stmdb	sp!, {r3, r7, fp, lr}
  \details Assigns the given value to the Main Stack Pointer (MSP).
  \param [in]    topOfMainStack  Main Stack Pointer value to set
 */
__attribute__((always_inline)) __STATIC_INLINE void __set_MSP(uint32_t topOfMainStack)
{
  __ASM volatile ("MSR msp, %0" : : "r" (topOfMainStack) : "sp");
     be0:	4b87      	ldr	r3, [pc, #540]	; (e00 <__pi_release+0x224>)
     be2:	af00      	add	r7, sp, #0
     be4:	f383 8808 	msr	MSP, r3

	__set_MSP ((lword)(STACK_START));

	check_stack_overflow;
     be8:	f5a3 5380 	sub.w	r3, r3, #4096	; 0x1000
     bec:	f8d3 2bfc 	ldr.w	r2, [r3, #3068]	; 0xbfc
     bf0:	4b84      	ldr	r3, [pc, #528]	; (e04 <__pi_release+0x228>)
     bf2:	429a      	cmp	r2, r3
     bf4:	d12a      	bne.n	c4c <__pi_release+0x70>
#endif
	// Catch up with time
	update_n_wake (MAX_WORD, NO);

	// Run the first ready process
	for_all_tasks (__pi_curr) {
     bf6:	f8df 8210 	ldr.w	r8, [pc, #528]	; e08 <__pi_release+0x22c>
	update_n_wake (MAX_WORD, NO);
     bfa:	2100      	movs	r1, #0
     bfc:	f64f 70ff 	movw	r0, #65535	; 0xffff
     c00:	f000 f9dc 	bl	fbc <update_n_wake>
	for_all_tasks (__pi_curr) {
     c04:	4b81      	ldr	r3, [pc, #516]	; (e0c <__pi_release+0x230>)
     c06:	681b      	ldr	r3, [r3, #0]
     c08:	f8c8 3000 	str.w	r3, [r8]
     c0c:	f8d8 3000 	ldr.w	r3, [r8]
     c10:	bb03      	cbnz	r3, c54 <__pi_release+0x78>
	entropy++;
#endif

#else	/* NOT SPIN_WHEN_HALTED */

	__SLEEP;
     c12:	4c7f      	ldr	r4, [pc, #508]	; (e10 <__pi_release+0x234>)
	system_event_count ++;
     c14:	f8df a1fc 	ldr.w	sl, [pc, #508]	; e14 <__pi_release+0x238>
  __ASM volatile ("cpsid i" : : : "memory");
     c18:	b672      	cpsid	i
     c1a:	7823      	ldrb	r3, [r4, #0]
     c1c:	0798      	lsls	r0, r3, #30
     c1e:	f3c3 0540 	ubfx	r5, r3, #1, #1
     c22:	f100 80e7 	bmi.w	df4 <__pi_release+0x218>
     c26:	f8da 3000 	ldr.w	r3, [sl]
	switch (__pi_systat.effpdm) {
     c2a:	78e2      	ldrb	r2, [r4, #3]
	system_event_count ++;
     c2c:	3301      	adds	r3, #1
	switch (__pi_systat.effpdm) {
     c2e:	2a01      	cmp	r2, #1
	system_event_count ++;
     c30:	f8ca 3000 	str.w	r3, [sl]
	switch (__pi_systat.effpdm) {
     c34:	b2d3      	uxtb	r3, r2
     c36:	d017      	beq.n	c68 <__pi_release+0x8c>
     c38:	2b02      	cmp	r3, #2
     c3a:	d03d      	beq.n	cb8 <__pi_release+0xdc>
     c3c:	2b00      	cmp	r3, #0
     c3e:	f040 80ab 	bne.w	d98 <__pi_release+0x1bc>
			__WFI ();
     c42:	bf30      	wfi
  __ASM volatile ("cpsie i" : : : "memory");
     c44:	b662      	cpsie	i
     c46:	bf00      	nop
     c48:	bf00      	nop
     c4a:	e7e5      	b.n	c18 <__pi_release+0x3c>
	check_stack_overflow;
     c4c:	200b      	movs	r0, #11
     c4e:	4972      	ldr	r1, [pc, #456]	; (e18 <__pi_release+0x23c>)
     c50:	f7ff fc1c 	bl	48c <__pi_syserror>
		if (__pi_curr->code != NULL && !waiting (__pi_curr)) {
     c54:	685a      	ldr	r2, [r3, #4]
     c56:	b12a      	cbz	r2, c64 <__pi_release+0x88>
     c58:	8818      	ldrh	r0, [r3, #0]
     c5a:	0704      	lsls	r4, r0, #28
     c5c:	d102      	bne.n	c64 <__pi_release+0x88>
			(__pi_curr->code) (tstate (__pi_curr));
     c5e:	0900      	lsrs	r0, r0, #4
     c60:	4790      	blx	r2
			goto Redo;
     c62:	e7ca      	b.n	bfa <__pi_release+0x1e>
	for_all_tasks (__pi_curr) {
     c64:	6adb      	ldr	r3, [r3, #44]	; 0x2c
     c66:	e7cf      	b.n	c08 <__pi_release+0x2c>
			HWREG (PRCM_BASE + PRCM_O_PDCTL1VIMS) |=
     c68:	4b6c      	ldr	r3, [pc, #432]	; (e1c <__pi_release+0x240>)
			PRCMPowerDomainOff (PRCM_DOMAIN_CPU);
     c6a:	2020      	movs	r0, #32
			HWREG (PRCM_BASE + PRCM_O_PDCTL1VIMS) |=
     c6c:	f8d3 218c 	ldr.w	r2, [r3, #396]	; 0x18c
     c70:	f042 0201 	orr.w	r2, r2, #1
     c74:	f8c3 218c 	str.w	r2, [r3, #396]	; 0x18c
//
//*****************************************************************************
__STATIC_INLINE void
PRCMCacheRetentionEnable( void )
{
   HWREG( PRCM_BASE + PRCM_O_RAMRETEN ) |= PRCM_RAMRETEN_VIMS_M;
     c78:	f8d3 2224 	ldr.w	r2, [r3, #548]	; 0x224
     c7c:	f042 0203 	orr.w	r2, r2, #3
     c80:	f8c3 2224 	str.w	r2, [r3, #548]	; 0x224
			PRCMPowerDomainOff (PRCM_DOMAIN_CPU);
     c84:	f04f 5380 	mov.w	r3, #268435456	; 0x10000000
     c88:	f8d3 31b8 	ldr.w	r3, [r3, #440]	; 0x1b8
     c8c:	699b      	ldr	r3, [r3, #24]
     c8e:	4798      	blx	r3
SysCtrlAonSync(void)
{
    //
    // Sync the AON interface
    //
    HWREG(AON_RTC_BASE + AON_RTC_O_SYNC);
     c90:	4b63      	ldr	r3, [pc, #396]	; (e20 <__pi_release+0x244>)
     c92:	6adb      	ldr	r3, [r3, #44]	; 0x2c
			HWREG (NVIC_SYS_CTRL) |= NVIC_SYS_CTRL_SLEEPDEEP;
     c94:	f04f 23e0 	mov.w	r3, #3758153728	; 0xe000e000
     c98:	f8d3 2d10 	ldr.w	r2, [r3, #3344]	; 0xd10
     c9c:	f042 0204 	orr.w	r2, r2, #4
     ca0:	f8c3 2d10 	str.w	r2, [r3, #3344]	; 0xd10
			__WFI ();
     ca4:	bf30      	wfi
			HWREG (NVIC_SYS_CTRL) &= ~(NVIC_SYS_CTRL_SLEEPDEEP);
     ca6:	f8d3 2d10 	ldr.w	r2, [r3, #3344]	; 0xd10
     caa:	f022 0204 	bic.w	r2, r2, #4
     cae:	f8c3 2d10 	str.w	r2, [r3, #3344]	; 0xd10
     cb2:	4b5b      	ldr	r3, [pc, #364]	; (e20 <__pi_release+0x244>)
     cb4:	6adb      	ldr	r3, [r3, #44]	; 0x2c
}
     cb6:	e7c5      	b.n	c44 <__pi_release+0x68>
    HWREG(PRCM_NONBUF_BASE + PRCM_O_CLKLOADCTL) = PRCM_CLKLOADCTL_LOAD;
     cb8:	2601      	movs	r6, #1
			PRCMPowerDomainOff (__pi_systat.ondmns |
     cba:	f04f 5980 	mov.w	r9, #268435456	; 0x10000000
    HWREG(AON_IOC_BASE + AON_IOC_O_IOCLATCH) = 0x0;
     cbe:	4b59      	ldr	r3, [pc, #356]	; (e24 <__pi_release+0x248>)
    // Check the arguments.
    ASSERT((ui32Mode == AONWUC_AUX_WAKEUP) ||
           (ui32Mode == AONWUC_AUX_ALLOW_SLEEP));

    // Wake up the AUX domain.
    HWREGBITW(AON_WUC_BASE + AON_WUC_O_AUXCTL, AON_WUC_AUXCTL_AUX_FORCE_ON_BITN) = ui32Mode;
     cc0:	f8df b164 	ldr.w	fp, [pc, #356]	; e28 <__pi_release+0x24c>
     cc4:	60dd      	str	r5, [r3, #12]
     cc6:	f8cb 5200 	str.w	r5, [fp, #512]	; 0x200
    HWREG(AON_RTC_BASE + AON_RTC_O_SYNC);
     cca:	f5a3 5300 	sub.w	r3, r3, #8192	; 0x2000
     cce:	6ada      	ldr	r2, [r3, #44]	; 0x2c
     cd0:	4a56      	ldr	r2, [pc, #344]	; (e2c <__pi_release+0x250>)
     cd2:	6296      	str	r6, [r2, #40]	; 0x28
     cd4:	6860      	ldr	r0, [r4, #4]
     cd6:	f8d9 21b8 	ldr.w	r2, [r9, #440]	; 0x1b8
     cda:	f040 0020 	orr.w	r0, r0, #32
     cde:	6992      	ldr	r2, [r2, #24]
     ce0:	4790      	blx	r2
    HWREGBITW(PRCM_BASE + PRCM_O_VDCTL, PRCM_VDCTL_ULDO_BITN) = ui32Enable;
     ce2:	4a53      	ldr	r2, [pc, #332]	; (e30 <__pi_release+0x254>)
//
//*****************************************************************************
__STATIC_INLINE void
PRCMCacheRetentionDisable( void )
{
   HWREG( PRCM_BASE + PRCM_O_RAMRETEN ) &= ~PRCM_RAMRETEN_VIMS_M;
     ce4:	4b4d      	ldr	r3, [pc, #308]	; (e1c <__pi_release+0x240>)
    HWREGBITW(PRCM_BASE + PRCM_O_VDCTL, PRCM_VDCTL_ULDO_BITN) = ui32Enable;
     ce6:	f8c2 6180 	str.w	r6, [r2, #384]	; 0x180
   HWREG( PRCM_BASE + PRCM_O_RAMRETEN ) &= ~PRCM_RAMRETEN_VIMS_M;
     cea:	f8d3 2224 	ldr.w	r2, [r3, #548]	; 0x224
			VIMSModeSet (VIMS_BASE, VIMS_MODE_OFF);
     cee:	2103      	movs	r1, #3
     cf0:	f022 0203 	bic.w	r2, r2, #3
     cf4:	f8c3 2224 	str.w	r2, [r3, #548]	; 0x224
     cf8:	f8d9 21d8 	ldr.w	r2, [r9, #472]	; 0x1d8
     cfc:	484d      	ldr	r0, [pc, #308]	; (e34 <__pi_release+0x258>)
     cfe:	6852      	ldr	r2, [r2, #4]
     d00:	4790      	blx	r2
			SysCtrlSetRechargeBeforePowerDown
     d02:	4628      	mov	r0, r5
     d04:	f002 ffa8 	bl	3c58 <NOROM_SysCtrlSetRechargeBeforePowerDown>
     d08:	4b45      	ldr	r3, [pc, #276]	; (e20 <__pi_release+0x244>)
     d0a:	6adb      	ldr	r3, [r3, #44]	; 0x2c
			HWREG (NVIC_SYS_CTRL) |= NVIC_SYS_CTRL_SLEEPDEEP;
     d0c:	f04f 23e0 	mov.w	r3, #3758153728	; 0xe000e000
     d10:	f8d3 2d10 	ldr.w	r2, [r3, #3344]	; 0xd10
     d14:	f042 0204 	orr.w	r2, r2, #4
     d18:	f8c3 2d10 	str.w	r2, [r3, #3344]	; 0xd10
			__WFI ();
     d1c:	bf30      	wfi
			HWREG (NVIC_SYS_CTRL) &= ~(NVIC_SYS_CTRL_SLEEPDEEP);
     d1e:	f8d3 2d10 	ldr.w	r2, [r3, #3344]	; 0xd10
			VIMSModeSet (VIMS_BASE, VIMS_MODE_ENABLED);
     d22:	4631      	mov	r1, r6
			HWREG (NVIC_SYS_CTRL) &= ~(NVIC_SYS_CTRL_SLEEPDEEP);
     d24:	f022 0204 	bic.w	r2, r2, #4
     d28:	f8c3 2d10 	str.w	r2, [r3, #3344]	; 0xd10
			VIMSModeSet (VIMS_BASE, VIMS_MODE_ENABLED);
     d2c:	f8d9 31d8 	ldr.w	r3, [r9, #472]	; 0x1d8
     d30:	4840      	ldr	r0, [pc, #256]	; (e34 <__pi_release+0x258>)
     d32:	685b      	ldr	r3, [r3, #4]
     d34:	4798      	blx	r3
   HWREG( PRCM_BASE + PRCM_O_RAMRETEN ) |= PRCM_RAMRETEN_VIMS_M;
     d36:	4a39      	ldr	r2, [pc, #228]	; (e1c <__pi_release+0x240>)
     d38:	f8d2 3224 	ldr.w	r3, [r2, #548]	; 0x224
     d3c:	f043 0303 	orr.w	r3, r3, #3
     d40:	f8c2 3224 	str.w	r3, [r2, #548]	; 0x224
     d44:	f8cb 6200 	str.w	r6, [fp, #512]	; 0x200
AONWUCPowerStatusGet(void)
{
    //
    // Return the power status.
    //
    return (HWREG(AON_WUC_BASE + AON_WUC_O_PWRSTAT));
     d48:	f502 4270 	add.w	r2, r2, #61440	; 0xf000
     d4c:	6953      	ldr	r3, [r2, #20]
			while (!(AONWUCPowerStatusGet () &
     d4e:	0699      	lsls	r1, r3, #26
     d50:	d5fc      	bpl.n	d4c <__pi_release+0x170>
			PRCMPowerDomainOn (__pi_systat.ondmns);
     d52:	f04f 5580 	mov.w	r5, #268435456	; 0x10000000
     d56:	f8d5 31b8 	ldr.w	r3, [r5, #440]	; 0x1b8
     d5a:	6860      	ldr	r0, [r4, #4]
     d5c:	695b      	ldr	r3, [r3, #20]
     d5e:	4798      	blx	r3
			while (PRCMPowerDomainStatus (__pi_systat.ondmns) !=
     d60:	f8d5 31b8 	ldr.w	r3, [r5, #440]	; 0x1b8
     d64:	6860      	ldr	r0, [r4, #4]
     d66:	6b5b      	ldr	r3, [r3, #52]	; 0x34
     d68:	4798      	blx	r3
     d6a:	2801      	cmp	r0, #1
     d6c:	d1f8      	bne.n	d60 <__pi_release+0x184>
    HWREGBITW(PRCM_BASE + PRCM_O_VDCTL, PRCM_VDCTL_ULDO_BITN) = ui32Enable;
     d6e:	2200      	movs	r2, #0
    HWREG(PRCM_NONBUF_BASE + PRCM_O_CLKLOADCTL) = PRCM_CLKLOADCTL_LOAD;
     d70:	4b2e      	ldr	r3, [pc, #184]	; (e2c <__pi_release+0x250>)
     d72:	6298      	str	r0, [r3, #40]	; 0x28
    HWREGBITW(PRCM_BASE + PRCM_O_VDCTL, PRCM_VDCTL_ULDO_BITN) = ui32Enable;
     d74:	4b2e      	ldr	r3, [pc, #184]	; (e30 <__pi_release+0x254>)
     d76:	f8c3 2180 	str.w	r2, [r3, #384]	; 0x180
    HWREG(AON_IOC_BASE + AON_IOC_O_IOCLATCH) = AON_IOC_IOCLATCH_EN;
     d7a:	4b2a      	ldr	r3, [pc, #168]	; (e24 <__pi_release+0x248>)
     d7c:	60d8      	str	r0, [r3, #12]
     d7e:	f5a3 5300 	sub.w	r3, r3, #8192	; 0x2000
     d82:	6adb      	ldr	r3, [r3, #44]	; 0x2c
			SysCtrlAdjustRechargeAfterPowerDown ();
     d84:	f003 f878 	bl	3e78 <NOROM_SysCtrlAdjustRechargeAfterPowerDown>
			reinit_uart ();
     d88:	f7ff fcc0 	bl	70c <reinit_uart>
     d8c:	4a2a      	ldr	r2, [pc, #168]	; (e38 <__pi_release+0x25c>)
     d8e:	6b93      	ldr	r3, [r2, #56]	; 0x38
     d90:	f043 0370 	orr.w	r3, r3, #112	; 0x70
     d94:	6393      	str	r3, [r2, #56]	; 0x38
}
     d96:	e755      	b.n	c44 <__pi_release+0x68>
			AUXWUCPowerCtrl (AUX_WUC_POWER_OFF);
     d98:	f04f 5380 	mov.w	r3, #268435456	; 0x10000000
     d9c:	f8d3 31a0 	ldr.w	r3, [r3, #416]	; 0x1a0
     da0:	2001      	movs	r0, #1
     da2:	68db      	ldr	r3, [r3, #12]
     da4:	4798      	blx	r3
			HWREG (AON_EVENT_BASE + AON_EVENT_O_MCUWUSEL) =
     da6:	f04f 313f 	mov.w	r1, #1061109567	; 0x3f3f3f3f
			HWREG (AON_WUC_BASE + AON_WUC_O_AUXCTL) &=
     daa:	4b24      	ldr	r3, [pc, #144]	; (e3c <__pi_release+0x260>)
     dac:	691a      	ldr	r2, [r3, #16]
     dae:	f022 0201 	bic.w	r2, r2, #1
     db2:	611a      	str	r2, [r3, #16]
			HWREG (AON_WUC_BASE + AON_WUC_O_JTAGCFG) &=
     db4:	6c1a      	ldr	r2, [r3, #64]	; 0x40
     db6:	f422 7280 	bic.w	r2, r2, #256	; 0x100
     dba:	641a      	str	r2, [r3, #64]	; 0x40
			HWREG (AON_EVENT_BASE + AON_EVENT_O_MCUWUSEL) =
     dbc:	4a20      	ldr	r2, [pc, #128]	; (e40 <__pi_release+0x264>)
     dbe:	6011      	str	r1, [r2, #0]
			HWREG (AON_EVENT_BASE + AON_EVENT_O_AUXWUSEL) =
     dc0:	6051      	str	r1, [r2, #4]
     dc2:	f5a2 5280 	sub.w	r2, r2, #4096	; 0x1000
     dc6:	6ad1      	ldr	r1, [r2, #44]	; 0x2c
    // Ensure the JTAG domain is turned off;
    // otherwise MCU domain can't be turned off.
    HWREG(AON_WUC_BASE + AON_WUC_O_JTAGCFG) = 0;

    // Enable shutdown of the device.
    HWREGBITW(AON_WUC_BASE + AON_WUC_O_CTL0, AON_WUC_CTL0_PWR_DWN_DIS_BITN) = 0;
     dc8:	4917      	ldr	r1, [pc, #92]	; (e28 <__pi_release+0x24c>)
    HWREG(AON_WUC_BASE + AON_WUC_O_JTAGCFG) = 0;
     dca:	641d      	str	r5, [r3, #64]	; 0x40
    HWREGBITW(AON_WUC_BASE + AON_WUC_O_CTL0, AON_WUC_CTL0_PWR_DWN_DIS_BITN) = 0;
     dcc:	f8c1 5420 	str.w	r5, [r1, #1056]	; 0x420
    HWREG(AON_WUC_BASE + AON_WUC_O_SHUTDOWN) = AON_WUC_SHUTDOWN_EN;
     dd0:	2101      	movs	r1, #1
     dd2:	6199      	str	r1, [r3, #24]
     dd4:	6ad2      	ldr	r2, [r2, #44]	; 0x2c
    return (HWREG(AON_WUC_BASE + AON_WUC_O_PWRSTAT));
     dd6:	695a      	ldr	r2, [r3, #20]
			while (AONWUCPowerStatusGet () & AONWUC_AUX_POWER_ON);
     dd8:	0692      	lsls	r2, r2, #26
     dda:	d4fc      	bmi.n	dd6 <__pi_release+0x1fa>
    HWREGBITW(PRCM_BASE + PRCM_O_VDCTL, PRCM_VDCTL_MCU_VD_BITN) = 1;
     ddc:	2201      	movs	r2, #1
     dde:	4b14      	ldr	r3, [pc, #80]	; (e30 <__pi_release+0x254>)
			PRCMPowerDomainOff (
     de0:	2037      	movs	r0, #55	; 0x37
     de2:	f8c3 2188 	str.w	r2, [r3, #392]	; 0x188
     de6:	f04f 5380 	mov.w	r3, #268435456	; 0x10000000
     dea:	f8d3 31b8 	ldr.w	r3, [r3, #440]	; 0x1b8
     dee:	699b      	ldr	r3, [r3, #24]
     df0:	4798      	blx	r3
			goto DeepSleep;
     df2:	e74f      	b.n	c94 <__pi_release+0xb8>
	__SLEEP;
     df4:	7823      	ldrb	r3, [r4, #0]
     df6:	f36f 0341 	bfc	r3, #1, #1
     dfa:	7023      	strb	r3, [r4, #0]
     dfc:	b662      	cpsie	i

#endif	/* SPIN_WHEN_HALTED */

	goto Redo;
     dfe:	e6fc      	b.n	bfa <__pi_release+0x1e>
     e00:	20005000 	andcs	r5, r0, r0
     e04:	a778b779 			; <UNDEFINED> instruction: 0xa778b779
     e08:	2000013c 	andcs	r0, r0, ip, lsr r1
     e0c:	20000138 	andcs	r0, r0, r8, lsr r1
     e10:	20000148 	andcs	r0, r0, r8, asr #2
     e14:	20000130 	andcs	r0, r0, r0, lsr r1
     e18:	0000430c 	andeq	r4, r0, ip, lsl #6
     e1c:	40082000 	andmi	r2, r8, r0
     e20:	40092000 	andmi	r2, r9, r0
     e24:	40094000 	andmi	r4, r9, r0
     e28:	43220000 			; <UNDEFINED> instruction: 0x43220000
     e2c:	60082000 	andvs	r2, r8, r0
     e30:	43040000 	movwmi	r0, #16384	; 0x4000
     e34:	40034000 	andmi	r4, r3, r0
     e38:	40001000 	andmi	r1, r0, r0
     e3c:	40091000 	andmi	r1, r9, r0
     e40:	40093000 	andmi	r3, r9, r0

00000e44 <main>:

#include "scheduler.h"

}

int main (void) {
     e44:	b510      	push	{r4, lr}
     e46:	4b13      	ldr	r3, [pc, #76]	; (e94 <main+0x50>)

#if	STACK_GUARD
	{
		register sint i;
		for (i = 0; i < (STACK_SIZE / sizeof (lword)) - 16; i++)
			*((((lword*)STACK_END) - 1) + i) = STACK_SENTINEL;
     e48:	4913      	ldr	r1, [pc, #76]	; (e98 <main+0x54>)
		for (i = 0; i < (STACK_SIZE / sizeof (lword)) - 16; i++)
     e4a:	4a14      	ldr	r2, [pc, #80]	; (e9c <main+0x58>)
			*((((lword*)STACK_END) - 1) + i) = STACK_SENTINEL;
     e4c:	f843 1b04 	str.w	r1, [r3], #4
		for (i = 0; i < (STACK_SIZE / sizeof (lword)) - 16; i++)
     e50:	4293      	cmp	r3, r2
     e52:	d1fb      	bne.n	e4c <main+0x8>
#if	TCV_PRESENT
	tcv_init ();
#endif

	// For standby mode wakeup on timer
	AONEventMcuWakeUpSet (AON_EVENT_MCU_EVENT0, AON_EVENT_RTC_COMB_DLY);
     e54:	f04f 5480 	mov.w	r4, #268435456	; 0x10000000
	system_init ();
     e58:	f7ff fde4 	bl	a24 <system_init>
	tcv_init ();
     e5c:	f000 fece 	bl	1bfc <tcv_init>
	AONEventMcuWakeUpSet (AON_EVENT_MCU_EVENT0, AON_EVENT_RTC_COMB_DLY);
     e60:	f8d4 3184 	ldr.w	r3, [r4, #388]	; 0x184
     e64:	2129      	movs	r1, #41	; 0x29
     e66:	2000      	movs	r0, #0
     e68:	681b      	ldr	r3, [r3, #0]
     e6a:	4798      	blx	r3
	// Edge on any I/O, will it take care of UART? No, of course not!
	// But it does work for buttons.
	AONEventMcuWakeUpSet (AON_EVENT_MCU_EVENT1, AON_EVENT_IO);
     e6c:	f8d4 3184 	ldr.w	r3, [r4, #388]	; 0x184
     e70:	2120      	movs	r1, #32
     e72:	681b      	ldr	r3, [r3, #0]
     e74:	2001      	movs	r0, #1
     e76:	4798      	blx	r3

	// Assume root process identity
	__pi_curr = (__pi_pcb_t*) fork (root, 0);
     e78:	2100      	movs	r1, #0
     e7a:	4809      	ldr	r0, [pc, #36]	; (ea0 <main+0x5c>)
     e7c:	f000 fac6 	bl	140c <__pi_fork>
     e80:	4b08      	ldr	r3, [pc, #32]	; (ea4 <main+0x60>)
	// Delay root startup for 16 msec to make sure that the drivers go
	// first
	delay (16, 0);
     e82:	2100      	movs	r1, #0
	__pi_curr = (__pi_pcb_t*) fork (root, 0);
     e84:	6018      	str	r0, [r3, #0]
	delay (16, 0);
     e86:	2010      	movs	r0, #16
     e88:	f000 f94e 	bl	1128 <delay>
     e8c:	b662      	cpsie	i

	sti;

	__pi_release ();
     e8e:	f7ff fea5 	bl	bdc <__pi_release>
     e92:	bf00      	nop
     e94:	20004bfc 	strdcs	r4, [r0], -ip
     e98:	a778b779 			; <UNDEFINED> instruction: 0xa778b779
     e9c:	20004fbc 			; <UNDEFINED> instruction: 0x20004fbc
     ea0:	000001e5 	andeq	r0, r0, r5, ror #3
     ea4:	2000013c 	andcs	r0, r0, ip, lsr r1

00000ea8 <killev>:
	}

	return i->Timer - __pi_old;
}

static void killev (__pi_pcb_t *pid) {
     ea8:	b570      	push	{r4, r5, r6, lr}
	aword wfun;
	int j;
	__pi_pcb_t *i;

	wfun = (aword)(pid->code);
	for_all_tasks (i) {
     eaa:	4b0d      	ldr	r3, [pc, #52]	; (ee0 <killev+0x38>)
	wfun = (aword)(pid->code);
     eac:	6846      	ldr	r6, [r0, #4]
	for_all_tasks (i) {
     eae:	681a      	ldr	r2, [r3, #0]
     eb0:	b1aa      	cbz	r2, ede <killev+0x36>
		for (j = 0; j < nevents (i); j++) {
     eb2:	4614      	mov	r4, r2
     eb4:	f834 1b10 	ldrh.w	r1, [r4], #16
     eb8:	2300      	movs	r3, #0
     eba:	f001 0107 	and.w	r1, r1, #7
     ebe:	e001      	b.n	ec4 <killev+0x1c>
			if (i->Events [j] . Event == (aword)pid
			    || i->Events [j] . Event == wfun
     ec0:	42b5      	cmp	r5, r6
     ec2:	d006      	beq.n	ed2 <killev+0x2a>
		for (j = 0; j < nevents (i); j++) {
     ec4:	4299      	cmp	r1, r3
     ec6:	dd08      	ble.n	eda <killev+0x32>
			if (i->Events [j] . Event == (aword)pid
     ec8:	f854 5033 	ldr.w	r5, [r4, r3, lsl #3]
     ecc:	3301      	adds	r3, #1
     ece:	42a8      	cmp	r0, r5
     ed0:	d1f6      	bne.n	ec0 <killev+0x18>
			    ) {
				wakeupev (i, j);
     ed2:	eb02 03c3 	add.w	r3, r2, r3, lsl #3
     ed6:	889b      	ldrh	r3, [r3, #4]
     ed8:	8013      	strh	r3, [r2, #0]
	for_all_tasks (i) {
     eda:	6ad2      	ldr	r2, [r2, #44]	; 0x2c
     edc:	e7e8      	b.n	eb0 <killev+0x8>
				break;
			}
		}
	}
}
     ede:	bd70      	pop	{r4, r5, r6, pc}
     ee0:	20000138 	andcs	r0, r0, r8, lsr r1

00000ee4 <qfree>:
	// volatile
#endif
	aword *chunk, *cc;

	cc = (aword*)(mpools + MA_NP);
	for (chunk = mpools [MA_NP]; chunk != NULL; chunk = m_nextp (chunk)) {
     ee4:	4a1d      	ldr	r2, [pc, #116]	; (f5c <qfree+0x78>)
static void qfree (aword *ch) {
     ee6:	b530      	push	{r4, r5, lr}
     ee8:	4614      	mov	r4, r2
	for (chunk = mpools [MA_NP]; chunk != NULL; chunk = m_nextp (chunk)) {
     eea:	6813      	ldr	r3, [r2, #0]
     eec:	b93b      	cbnz	r3, efe <qfree+0x1a>
		}
	}

	/* Insert */
	cc = (aword*)(mpools + MA_NP);
	for (chunk = mpools [MA_NP]; chunk != NULL; cc = chunk,
     eee:	6823      	ldr	r3, [r4, #0]
	cc = (aword*)(mpools + MA_NP);
     ef0:	4a1a      	ldr	r2, [pc, #104]	; (f5c <qfree+0x78>)
	for (chunk = mpools [MA_NP]; chunk != NULL; cc = chunk,
     ef2:	bb53      	cbnz	r3, f4a <qfree+0x66>
		chunk = m_nextp (chunk))
			if (m_size (chunk) >= m_size (ch))
				break;

	m_setnextp (ch, chunk);
     ef4:	6003      	str	r3, [r0, #0]
	m_setnextp (cc, ch);

#if	MALLOC_SAFE
	m_magic (ch) = MALLOC_MAGIC;
     ef6:	4b1a      	ldr	r3, [pc, #104]	; (f60 <qfree+0x7c>)
	m_setnextp (cc, ch);
     ef8:	6010      	str	r0, [r2, #0]
	m_magic (ch) = MALLOC_MAGIC;
     efa:	6043      	str	r3, [r0, #4]
#endif

#undef	MA_NP
}
     efc:	bd30      	pop	{r4, r5, pc}
		if (chunk + m_size (chunk) + m_hdrlen == ch) {
     efe:	e953 1501 	ldrd	r1, r5, [r3, #-4]
     f02:	3101      	adds	r1, #1
     f04:	eb03 0181 	add.w	r1, r3, r1, lsl #2
     f08:	4288      	cmp	r0, r1
     f0a:	d10b      	bne.n	f24 <qfree+0x40>
			m_setnextp (cc, m_nextp (chunk));
     f0c:	6015      	str	r5, [r2, #0]
			m_size (chunk) += m_hdrlen + m_size (ch);
     f0e:	f850 0c04 	ldr.w	r0, [r0, #-4]
     f12:	f853 1c04 	ldr.w	r1, [r3, #-4]
     f16:	4401      	add	r1, r0
     f18:	4618      	mov	r0, r3
     f1a:	3101      	adds	r1, #1
     f1c:	f843 1c04 	str.w	r1, [r3, #-4]
	for (chunk = mpools [MA_NP]; chunk != NULL; chunk = m_nextp (chunk)) {
     f20:	681b      	ldr	r3, [r3, #0]
     f22:	e7e3      	b.n	eec <qfree+0x8>
		} else if (ch + m_size (ch) + m_hdrlen == chunk) {
     f24:	f850 1c04 	ldr.w	r1, [r0, #-4]
     f28:	3101      	adds	r1, #1
     f2a:	eb00 0181 	add.w	r1, r0, r1, lsl #2
     f2e:	428b      	cmp	r3, r1
			m_setnextp (cc, m_nextp (chunk));
     f30:	bf03      	ittte	eq
     f32:	6015      	streq	r5, [r2, #0]
			m_size (ch) += m_hdrlen + m_size (chunk);
     f34:	f850 1c04 	ldreq.w	r1, [r0, #-4]
     f38:	f853 5c04 	ldreq.w	r5, [r3, #-4]
     f3c:	461a      	movne	r2, r3
     f3e:	bf02      	ittt	eq
     f40:	1949      	addeq	r1, r1, r5
     f42:	3101      	addeq	r1, #1
     f44:	f840 1c04 	streq.w	r1, [r0, #-4]
     f48:	e7ea      	b.n	f20 <qfree+0x3c>
			if (m_size (chunk) >= m_size (ch))
     f4a:	f853 4c04 	ldr.w	r4, [r3, #-4]
     f4e:	f850 1c04 	ldr.w	r1, [r0, #-4]
     f52:	428c      	cmp	r4, r1
     f54:	d2ce      	bcs.n	ef4 <qfree+0x10>
		chunk = m_nextp (chunk))
     f56:	461a      	mov	r2, r3
     f58:	681b      	ldr	r3, [r3, #0]
     f5a:	e7ca      	b.n	ef2 <qfree+0xe>
     f5c:	20000174 	andcs	r0, r0, r4, ror r1
     f60:	deafdeaf 	cdple	14, 10, cr13, cr15, cr15, {5}

00000f64 <dgout>:
    return((HWREG(ui32Base + UART_O_FR) & UART_FR_BUSY) ?
     f64:	4b03      	ldr	r3, [pc, #12]	; (f74 <dgout+0x10>)
     f66:	699a      	ldr	r2, [r3, #24]

#if	dbg_level != 0 || DIAG_MESSAGES

static void dgout (word c) {

	diag_wait (a);
     f68:	0712      	lsls	r2, r2, #28
     f6a:	d4fc      	bmi.n	f66 <dgout+0x2>
	diag_wchar (c, a);
     f6c:	b2c0      	uxtb	r0, r0
     f6e:	6018      	str	r0, [r3, #0]
}
     f70:	4770      	bx	lr
     f72:	bf00      	nop
     f74:	40001000 	andmi	r1, r0, r0

00000f78 <__pi_badstate>:
	syserror (ESTATE, "state");
     f78:	2007      	movs	r0, #7
void __pi_badstate (void) {
     f7a:	b508      	push	{r3, lr}
	syserror (ESTATE, "state");
     f7c:	4901      	ldr	r1, [pc, #4]	; (f84 <__pi_badstate+0xc>)
     f7e:	f7ff fa85 	bl	48c <__pi_syserror>
     f82:	bf00      	nop
     f84:	00004354 	andeq	r4, r0, r4, asr r3

00000f88 <utimer_add>:
	for (i = 0; i < MAX_UTIMERS; i++)
     f88:	4a08      	ldr	r2, [pc, #32]	; (fac <utimer_add+0x24>)
void utimer_add (address ut) {
     f8a:	4603      	mov	r3, r0
     f8c:	4611      	mov	r1, r2
	for (i = 0; i < MAX_UTIMERS; i++)
     f8e:	2000      	movs	r0, #0
void utimer_add (address ut) {
     f90:	b510      	push	{r4, lr}
		if (__pi_utims [i] == NULL)
     f92:	f852 4b04 	ldr.w	r4, [r2], #4
     f96:	b12c      	cbz	r4, fa4 <utimer_add+0x1c>
	for (i = 0; i < MAX_UTIMERS; i++)
     f98:	3001      	adds	r0, #1
     f9a:	2804      	cmp	r0, #4
     f9c:	d1f9      	bne.n	f92 <utimer_add+0xa>
		syserror (ERESOURCE, "ut a");
     f9e:	4904      	ldr	r1, [pc, #16]	; (fb0 <utimer_add+0x28>)
     fa0:	f7ff fa74 	bl	48c <__pi_syserror>
	__pi_utims [i] = ut;
     fa4:	f841 3020 	str.w	r3, [r1, r0, lsl #2]
}
     fa8:	bd10      	pop	{r4, pc}
     faa:	bf00      	nop
     fac:	20000150 	andcs	r0, r0, r0, asr r1
     fb0:	0000435a 	andeq	r4, r0, sl, asr r3

00000fb4 <__pi_utimer_set>:
	*t = v;
     fb4:	8001      	strh	r1, [r0, #0]
	TCI_RUN_AUXILIARY_TIMER;
     fb6:	f7ff bab5 	b.w	524 <tci_run_auxiliary_timer>
	...

00000fbc <update_n_wake>:
void update_n_wake (word min, Boolean force) {
     fbc:	b5f8      	push	{r3, r4, r5, r6, r7, lr}
     fbe:	4604      	mov	r4, r0
	if (TCI_UPDATE_DELAY_TICKS (force))
     fc0:	4608      	mov	r0, r1
     fc2:	f7ff fb51 	bl	668 <tci_update_delay_ticks>
     fc6:	2800      	cmp	r0, #0
     fc8:	d154      	bne.n	1074 <update_n_wake+0xb8>
	if (twakecnd (__pi_old, znew, __pi_mintk)) {
     fca:	4b2b      	ldr	r3, [pc, #172]	; (1078 <update_n_wake+0xbc>)
     fcc:	4e2b      	ldr	r6, [pc, #172]	; (107c <update_n_wake+0xc0>)
     fce:	8819      	ldrh	r1, [r3, #0]
     fd0:	8832      	ldrh	r2, [r6, #0]
     fd2:	b289      	uxth	r1, r1
     fd4:	428a      	cmp	r2, r1
     fd6:	492a      	ldr	r1, [pc, #168]	; (1080 <update_n_wake+0xc4>)
     fd8:	d803      	bhi.n	fe2 <update_n_wake+0x26>
     fda:	8808      	ldrh	r0, [r1, #0]
     fdc:	b280      	uxth	r0, r0
     fde:	4282      	cmp	r2, r0
     fe0:	d20d      	bcs.n	ffe <update_n_wake+0x42>
     fe2:	881d      	ldrh	r5, [r3, #0]
     fe4:	8808      	ldrh	r0, [r1, #0]
     fe6:	b2ad      	uxth	r5, r5
     fe8:	b280      	uxth	r0, r0
     fea:	4285      	cmp	r5, r0
     fec:	d236      	bcs.n	105c <update_n_wake+0xa0>
     fee:	8818      	ldrh	r0, [r3, #0]
     ff0:	b280      	uxth	r0, r0
     ff2:	4282      	cmp	r2, r0
     ff4:	d903      	bls.n	ffe <update_n_wake+0x42>
     ff6:	8808      	ldrh	r0, [r1, #0]
     ff8:	b280      	uxth	r0, r0
     ffa:	4282      	cmp	r2, r0
     ffc:	d32e      	bcc.n	105c <update_n_wake+0xa0>
		for_all_tasks (i) {
     ffe:	4a21      	ldr	r2, [pc, #132]	; (1084 <update_n_wake+0xc8>)
    1000:	6810      	ldr	r0, [r2, #0]
    1002:	b918      	cbnz	r0, 100c <update_n_wake+0x50>
	__pi_mintk = znew + min;
    1004:	8818      	ldrh	r0, [r3, #0]
    1006:	4404      	add	r4, r0
    1008:	8034      	strh	r4, [r6, #0]
    100a:	e02c      	b.n	1066 <update_n_wake+0xaa>
			if (!twaiting (i))
    100c:	8805      	ldrh	r5, [r0, #0]
    100e:	072a      	lsls	r2, r5, #28
    1010:	d51b      	bpl.n	104a <update_n_wake+0x8e>
			if (twakecnd (__pi_old, znew, i->Timer)) {
    1012:	881f      	ldrh	r7, [r3, #0]
    1014:	8842      	ldrh	r2, [r0, #2]
    1016:	b2bf      	uxth	r7, r7
    1018:	42ba      	cmp	r2, r7
    101a:	d803      	bhi.n	1024 <update_n_wake+0x68>
    101c:	880f      	ldrh	r7, [r1, #0]
    101e:	b2bf      	uxth	r7, r7
    1020:	42ba      	cmp	r2, r7
    1022:	d20f      	bcs.n	1044 <update_n_wake+0x88>
    1024:	f8b3 c000 	ldrh.w	ip, [r3]
    1028:	880f      	ldrh	r7, [r1, #0]
    102a:	fa1f fc8c 	uxth.w	ip, ip
    102e:	b2bf      	uxth	r7, r7
    1030:	45bc      	cmp	ip, r7
    1032:	d20c      	bcs.n	104e <update_n_wake+0x92>
    1034:	881f      	ldrh	r7, [r3, #0]
    1036:	b2bf      	uxth	r7, r7
    1038:	42ba      	cmp	r2, r7
    103a:	d903      	bls.n	1044 <update_n_wake+0x88>
    103c:	880f      	ldrh	r7, [r1, #0]
    103e:	b2bf      	uxth	r7, r7
    1040:	42ba      	cmp	r2, r7
    1042:	d304      	bcc.n	104e <update_n_wake+0x92>
				wakeuptm (i);
    1044:	f025 050f 	bic.w	r5, r5, #15
    1048:	8005      	strh	r5, [r0, #0]
		for_all_tasks (i) {
    104a:	6ac0      	ldr	r0, [r0, #44]	; 0x2c
    104c:	e7d9      	b.n	1002 <update_n_wake+0x46>
				d = i->Timer - znew;
    104e:	881d      	ldrh	r5, [r3, #0]
    1050:	1b52      	subs	r2, r2, r5
    1052:	b292      	uxth	r2, r2
    1054:	4294      	cmp	r4, r2
    1056:	bf28      	it	cs
    1058:	4614      	movcs	r4, r2
    105a:	e7f6      	b.n	104a <update_n_wake+0x8e>
		if ((word)(__pi_mintk - znew) < min) 
    105c:	8818      	ldrh	r0, [r3, #0]
    105e:	1a12      	subs	r2, r2, r0
    1060:	b292      	uxth	r2, r2
    1062:	4294      	cmp	r4, r2
    1064:	d9ce      	bls.n	1004 <update_n_wake+0x48>
	__pi_old = znew;
    1066:	881b      	ldrh	r3, [r3, #0]
    1068:	b29b      	uxth	r3, r3
    106a:	800b      	strh	r3, [r1, #0]
}
    106c:	e8bd 40f8 	ldmia.w	sp!, {r3, r4, r5, r6, r7, lr}
	TCI_RUN_DELAY_TIMER;
    1070:	f7ff ba36 	b.w	4e0 <tci_run_delay_timer>
}
    1074:	bdf8      	pop	{r3, r4, r5, r6, r7, pc}
    1076:	bf00      	nop
    1078:	20000142 	andcs	r0, r0, r2, asr #2
    107c:	20000140 	andcs	r0, r0, r0, asr #2
    1080:	20000144 	andcs	r0, r0, r4, asr #2
    1084:	20000138 	andcs	r0, r0, r8, lsr r1

00001088 <proceed>:
void proceed (word state) {
    1088:	b508      	push	{r3, lr}
	prcdstate (__pi_curr, state);
    108a:	4b03      	ldr	r3, [pc, #12]	; (1098 <proceed+0x10>)
    108c:	0100      	lsls	r0, r0, #4
    108e:	681b      	ldr	r3, [r3, #0]
    1090:	8018      	strh	r0, [r3, #0]
	release;
    1092:	f7ff fda3 	bl	bdc <__pi_release>
    1096:	bf00      	nop
    1098:	2000013c 	andcs	r0, r0, ip, lsr r1

0000109c <__pi_wait>:
void __pi_wait (aword event, word state) {
    109c:	b510      	push	{r4, lr}
	sint j = nevents (__pi_curr);
    109e:	4b0a      	ldr	r3, [pc, #40]	; (10c8 <__pi_wait+0x2c>)
    10a0:	681c      	ldr	r4, [r3, #0]
    10a2:	8823      	ldrh	r3, [r4, #0]
	if (j >= MAX_EVENTS_PER_TASK)
    10a4:	f013 0f04 	tst.w	r3, #4
    10a8:	f003 0207 	and.w	r2, r3, #7
    10ac:	d003      	beq.n	10b6 <__pi_wait+0x1a>
		syserror (ENEVENTS, "sw");
    10ae:	2005      	movs	r0, #5
    10b0:	4906      	ldr	r1, [pc, #24]	; (10cc <__pi_wait+0x30>)
    10b2:	f7ff f9eb 	bl	48c <__pi_syserror>
	setestate (__pi_curr->Events [j], state, event);
    10b6:	eb04 02c2 	add.w	r2, r4, r2, lsl #3
    10ba:	0109      	lsls	r1, r1, #4
	incwait (__pi_curr);
    10bc:	3301      	adds	r3, #1
	setestate (__pi_curr->Events [j], state, event);
    10be:	8191      	strh	r1, [r2, #12]
    10c0:	6110      	str	r0, [r2, #16]
	incwait (__pi_curr);
    10c2:	8023      	strh	r3, [r4, #0]
}
    10c4:	bd10      	pop	{r4, pc}
    10c6:	bf00      	nop
    10c8:	2000013c 	andcs	r0, r0, ip, lsr r1
    10cc:	0000435f 	andeq	r4, r0, pc, asr r3

000010d0 <__pi_trigger>:
void __pi_trigger (aword event) {
    10d0:	b530      	push	{r4, r5, lr}
	for_all_tasks (i) {
    10d2:	4b0b      	ldr	r3, [pc, #44]	; (1100 <__pi_trigger+0x30>)
    10d4:	681a      	ldr	r2, [r3, #0]
    10d6:	b192      	cbz	r2, 10fe <__pi_trigger+0x2e>
		for (j = 0; j < nevents (i); j++) {
    10d8:	4614      	mov	r4, r2
    10da:	2300      	movs	r3, #0
    10dc:	f834 1b10 	ldrh.w	r1, [r4], #16
    10e0:	f001 0107 	and.w	r1, r1, #7
    10e4:	4299      	cmp	r1, r3
    10e6:	dd08      	ble.n	10fa <__pi_trigger+0x2a>
			if (i->Events [j] . Event == event) {
    10e8:	f854 5033 	ldr.w	r5, [r4, r3, lsl #3]
    10ec:	3301      	adds	r3, #1
    10ee:	4285      	cmp	r5, r0
    10f0:	d1f8      	bne.n	10e4 <__pi_trigger+0x14>
				wakeupev (i, j);
    10f2:	eb02 03c3 	add.w	r3, r2, r3, lsl #3
    10f6:	889b      	ldrh	r3, [r3, #4]
    10f8:	8013      	strh	r3, [r2, #0]
	for_all_tasks (i) {
    10fa:	6ad2      	ldr	r2, [r2, #44]	; 0x2c
    10fc:	e7eb      	b.n	10d6 <__pi_trigger+0x6>
}
    10fe:	bd30      	pop	{r4, r5, pc}
    1100:	20000138 	andcs	r0, r0, r8, lsr r1

00001104 <__pi_join>:
aword __pi_join (aword pid, word st) {
    1104:	b510      	push	{r4, lr}
    1106:	4604      	mov	r4, r0
	for_all_tasks (i) {
    1108:	4b06      	ldr	r3, [pc, #24]	; (1124 <__pi_join+0x20>)
    110a:	681b      	ldr	r3, [r3, #0]
    110c:	b90b      	cbnz	r3, 1112 <__pi_join+0xe>
	return 0;
    110e:	461c      	mov	r4, r3
    1110:	e004      	b.n	111c <__pi_join+0x18>
		if ((aword)i == pid) {
    1112:	42a3      	cmp	r3, r4
    1114:	d104      	bne.n	1120 <__pi_join+0x1c>
			__pi_wait (pid, st);
    1116:	4620      	mov	r0, r4
    1118:	f7ff ffc0 	bl	109c <__pi_wait>
}
    111c:	4620      	mov	r0, r4
    111e:	bd10      	pop	{r4, pc}
	for_all_tasks (i) {
    1120:	6adb      	ldr	r3, [r3, #44]	; 0x2c
    1122:	e7f3      	b.n	110c <__pi_join+0x8>
    1124:	20000138 	andcs	r0, r0, r8, lsr r1

00001128 <delay>:
void delay (word d, word state) {
    1128:	b538      	push	{r3, r4, r5, lr}
    112a:	4604      	mov	r4, r0
	settstate (__pi_curr, state);
    112c:	4d0a      	ldr	r5, [pc, #40]	; (1158 <delay+0x30>)
    112e:	682a      	ldr	r2, [r5, #0]
    1130:	8813      	ldrh	r3, [r2, #0]
    1132:	f003 0307 	and.w	r3, r3, #7
    1136:	ea43 1301 	orr.w	r3, r3, r1, lsl #4
    113a:	8013      	strh	r3, [r2, #0]
	update_n_wake (d, YES);
    113c:	2101      	movs	r1, #1
    113e:	f7ff ff3d 	bl	fbc <update_n_wake>
	__pi_curr->Timer = __pi_old + d;
    1142:	4b06      	ldr	r3, [pc, #24]	; (115c <delay+0x34>)
    1144:	8818      	ldrh	r0, [r3, #0]
    1146:	682b      	ldr	r3, [r5, #0]
    1148:	4404      	add	r4, r0
    114a:	805c      	strh	r4, [r3, #2]
	inctimer (__pi_curr);
    114c:	682a      	ldr	r2, [r5, #0]
    114e:	8813      	ldrh	r3, [r2, #0]
    1150:	f043 0308 	orr.w	r3, r3, #8
    1154:	8013      	strh	r3, [r2, #0]
}
    1156:	bd38      	pop	{r3, r4, r5, pc}
    1158:	2000013c 	andcs	r0, r0, ip, lsr r1
    115c:	20000144 	andcs	r0, r0, r4, asr #2

00001160 <running>:
	if (fun == NULL)
    1160:	4603      	mov	r3, r0
    1162:	b910      	cbnz	r0, 116a <running+0xa>
		return (int) __pi_curr;
    1164:	4b05      	ldr	r3, [pc, #20]	; (117c <running+0x1c>)
    1166:	6818      	ldr	r0, [r3, #0]
    1168:	4770      	bx	lr
	for_all_tasks (i)
    116a:	4a05      	ldr	r2, [pc, #20]	; (1180 <running+0x20>)
    116c:	6810      	ldr	r0, [r2, #0]
    116e:	b900      	cbnz	r0, 1172 <running+0x12>
}
    1170:	4770      	bx	lr
		if (i->code == fun)
    1172:	6842      	ldr	r2, [r0, #4]
    1174:	429a      	cmp	r2, r3
    1176:	d0fb      	beq.n	1170 <running+0x10>
	for_all_tasks (i)
    1178:	6ac0      	ldr	r0, [r0, #44]	; 0x2c
    117a:	e7f8      	b.n	116e <running+0xe>
    117c:	2000013c 	andcs	r0, r0, ip, lsr r1
    1180:	20000138 	andcs	r0, r0, r8, lsr r1

00001184 <__pi_strlen>:
int __pi_strlen (const char *s) {
    1184:	4603      	mov	r3, r0
	for (i = 0; *(s+i) != '\0'; i++);
    1186:	2000      	movs	r0, #0
    1188:	5c1a      	ldrb	r2, [r3, r0]
    118a:	b902      	cbnz	r2, 118e <__pi_strlen+0xa>
}
    118c:	4770      	bx	lr
	for (i = 0; *(s+i) != '\0'; i++);
    118e:	3001      	adds	r0, #1
    1190:	e7fa      	b.n	1188 <__pi_strlen+0x4>

00001192 <__pi_strcpy>:
	while ((Boolean)(*d++ = *s++));
    1192:	3801      	subs	r0, #1
    1194:	f811 3b01 	ldrb.w	r3, [r1], #1
    1198:	f800 3f01 	strb.w	r3, [r0, #1]!
    119c:	2b00      	cmp	r3, #0
    119e:	d1f9      	bne.n	1194 <__pi_strcpy+0x2>
}
    11a0:	4770      	bx	lr

000011a2 <__pi_memcpy>:
	while (n--)
    11a2:	3801      	subs	r0, #1
    11a4:	440a      	add	r2, r1
    11a6:	4291      	cmp	r1, r2
    11a8:	d100      	bne.n	11ac <__pi_memcpy+0xa>
}
    11aa:	4770      	bx	lr
		*dest++ = *src++;
    11ac:	f811 3b01 	ldrb.w	r3, [r1], #1
    11b0:	f800 3f01 	strb.w	r3, [r0, #1]!
    11b4:	e7f7      	b.n	11a6 <__pi_memcpy+0x4>

000011b6 <__pi_memset>:
		*dest++ = c;
    11b6:	f002 bf6f 	b.w	4098 <memset>
	...

000011bc <adddevfunc>:
void adddevfunc (devreqfun_t rf, int loc) {
    11bc:	b508      	push	{r3, lr}
	if (loc < 0 || loc >= MAX_DEVICES)
    11be:	b119      	cbz	r1, 11c8 <adddevfunc+0xc>
		syserror (EREQPAR, "addv");
    11c0:	2003      	movs	r0, #3
    11c2:	4905      	ldr	r1, [pc, #20]	; (11d8 <adddevfunc+0x1c>)
		syserror (ERESOURCE, "addv");
    11c4:	f7ff f962 	bl	48c <__pi_syserror>
	if (ioreq [loc] != NULL)
    11c8:	4b04      	ldr	r3, [pc, #16]	; (11dc <adddevfunc+0x20>)
    11ca:	681a      	ldr	r2, [r3, #0]
    11cc:	b112      	cbz	r2, 11d4 <adddevfunc+0x18>
		syserror (ERESOURCE, "addv");
    11ce:	2004      	movs	r0, #4
    11d0:	4901      	ldr	r1, [pc, #4]	; (11d8 <adddevfunc+0x1c>)
    11d2:	e7f7      	b.n	11c4 <adddevfunc+0x8>
	ioreq [loc] = rf;
    11d4:	6018      	str	r0, [r3, #0]
}
    11d6:	bd08      	pop	{r3, pc}
    11d8:	00004362 	andeq	r4, r0, r2, ror #6
    11dc:	20000164 	andcs	r0, r0, r4, ror #2

000011e0 <io>:
sint io (word retry, word dev, word operation, char *buf, word len) {
    11e0:	e92d 43f8 	stmdb	sp!, {r3, r4, r5, r6, r7, r8, r9, lr}
    11e4:	4604      	mov	r4, r0
    11e6:	4616      	mov	r6, r2
    11e8:	461d      	mov	r5, r3
    11ea:	f8bd 8020 	ldrh.w	r8, [sp, #32]
	if (dev >= MAX_DEVICES || ioreq [dev] == NULL)
    11ee:	b921      	cbnz	r1, 11fa <io+0x1a>
    11f0:	f8df 9080 	ldr.w	r9, [pc, #128]	; 1274 <io+0x94>
    11f4:	f8d9 3000 	ldr.w	r3, [r9]
    11f8:	b91b      	cbnz	r3, 1202 <io+0x22>
		syserror (ENODEVICE, "io");
    11fa:	2001      	movs	r0, #1
    11fc:	491e      	ldr	r1, [pc, #120]	; (1278 <io+0x98>)
    11fe:	f7ff f945 	bl	48c <__pi_syserror>
	if (len == 0)
    1202:	f1b8 0f00 	cmp.w	r8, #0
    1206:	d028      	beq.n	125a <io+0x7a>
	ret = (ioreq [dev]) (operation, buf, len);
    1208:	4642      	mov	r2, r8
    120a:	4629      	mov	r1, r5
    120c:	4630      	mov	r0, r6
    120e:	4798      	blx	r3
	if (ret >= 0)
    1210:	2800      	cmp	r0, #0
    1212:	da23      	bge.n	125c <io+0x7c>
	if (ret == -1) {
    1214:	1c41      	adds	r1, r0, #1
    1216:	f64f 73ff 	movw	r3, #65535	; 0xffff
    121a:	d108      	bne.n	122e <io+0x4e>
		if (retry == WNONE)
    121c:	429c      	cmp	r4, r3
    121e:	d01c      	beq.n	125a <io+0x7a>
		iowait (dev, operation, retry);
    1220:	4621      	mov	r1, r4
    1222:	f5a6 7081 	sub.w	r0, r6, #258	; 0x102
    1226:	f7ff ff39 	bl	109c <__pi_wait>
			release;
    122a:	f7ff fcd7 	bl	bdc <__pi_release>
	if (ret == -2) {
    122e:	1c82      	adds	r2, r0, #2
    1230:	d116      	bne.n	1260 <io+0x80>
		if (retry != WNONE) {
    1232:	429c      	cmp	r4, r3
			(ioreq [dev]) (NONE, buf, len);
    1234:	f8d9 9000 	ldr.w	r9, [r9]
		if (retry != WNONE) {
    1238:	d00a      	beq.n	1250 <io+0x70>
			iowait (dev, operation, retry);
    123a:	4621      	mov	r1, r4
    123c:	f5a6 7081 	sub.w	r0, r6, #258	; 0x102
    1240:	f7ff ff2c 	bl	109c <__pi_wait>
			(ioreq [dev]) (NONE, buf, len);
    1244:	4642      	mov	r2, r8
    1246:	4629      	mov	r1, r5
    1248:	f04f 30ff 	mov.w	r0, #4294967295	; 0xffffffff
    124c:	47c8      	blx	r9
    124e:	e7ec      	b.n	122a <io+0x4a>
		(ioreq [dev]) (NONE, buf, len);
    1250:	4642      	mov	r2, r8
    1252:	4629      	mov	r1, r5
    1254:	f04f 30ff 	mov.w	r0, #4294967295	; 0xffffffff
    1258:	47c8      	blx	r9
		return 0;
    125a:	2000      	movs	r0, #0
}
    125c:	e8bd 83f8 	ldmia.w	sp!, {r3, r4, r5, r6, r7, r8, r9, pc}
	if (retry != WNONE) {
    1260:	429c      	cmp	r4, r3
    1262:	d0fa      	beq.n	125a <io+0x7a>
		delay (-ret - 2, retry);
    1264:	f5c0 407f 	rsb	r0, r0, #65280	; 0xff00
    1268:	30fe      	adds	r0, #254	; 0xfe
    126a:	4621      	mov	r1, r4
    126c:	b280      	uxth	r0, r0
    126e:	f7ff ff5b 	bl	1128 <delay>
		release;
    1272:	e7da      	b.n	122a <io+0x4a>
    1274:	20000164 	andcs	r0, r0, r4, ror #2
    1278:	00004367 	andeq	r4, r0, r7, ror #6

0000127c <__pi_malloc_init>:
	if ((mlen = (aword)MALLOC_LENGTH) < 256)
    127c:	4a0d      	ldr	r2, [pc, #52]	; (12b4 <__pi_malloc_init+0x38>)
void __pi_malloc_init () {
    127e:	b508      	push	{r3, lr}
	if ((mlen = (aword)MALLOC_LENGTH) < 256)
    1280:	f1c2 5300 	rsb	r3, r2, #536870912	; 0x20000000
    1284:	f503 4398 	add.w	r3, r3, #19456	; 0x4c00
    1288:	089b      	lsrs	r3, r3, #2
    128a:	1e59      	subs	r1, r3, #1
    128c:	29ff      	cmp	r1, #255	; 0xff
    128e:	d803      	bhi.n	1298 <__pi_malloc_init+0x1c>
		syserror (ERESOURCE, "mal1");
    1290:	2004      	movs	r0, #4
    1292:	4909      	ldr	r1, [pc, #36]	; (12b8 <__pi_malloc_init+0x3c>)
    1294:	f7ff f8fa 	bl	48c <__pi_syserror>
	mpools [0] = ((aword*)MALLOC_START) + m_hdrlen;
    1298:	4908      	ldr	r1, [pc, #32]	; (12bc <__pi_malloc_init+0x40>)
    129a:	1d10      	adds	r0, r2, #4
    129c:	6008      	str	r0, [r1, #0]
	m_magic (mpools [0]) = MALLOC_MAGIC;
    129e:	2000      	movs	r0, #0
    12a0:	4907      	ldr	r1, [pc, #28]	; (12c0 <__pi_malloc_init+0x44>)
	m_size (mpools [0]) = mlen - m_hdrlen;
    12a2:	3b02      	subs	r3, #2
    12a4:	6013      	str	r3, [r2, #0]
	m_magic (mpools [0]) = MALLOC_MAGIC;
    12a6:	e9c2 0101 	strd	r0, r1, [r2, #4]
	mnfree [0] = mcfree [0] = m_size (mpools [0]);
    12aa:	4a06      	ldr	r2, [pc, #24]	; (12c4 <__pi_malloc_init+0x48>)
    12ac:	6013      	str	r3, [r2, #0]
    12ae:	4a06      	ldr	r2, [pc, #24]	; (12c8 <__pi_malloc_init+0x4c>)
    12b0:	6013      	str	r3, [r2, #0]
}
    12b2:	bd08      	pop	{r3, pc}
    12b4:	2000023c 	andcs	r0, r0, ip, lsr r2
    12b8:	0000436a 	andeq	r4, r0, sl, ror #6
    12bc:	20000174 	andcs	r0, r0, r4, ror r1
    12c0:	deafdeaf 	cdple	14, 10, cr13, cr15, cr15, {5}
    12c4:	20000168 	andcs	r0, r0, r8, ror #2
    12c8:	20000170 	andcs	r0, r0, r0, ror r1

000012cc <__pi_free>:
void __pi_free (aword *ch) {
    12cc:	b508      	push	{r3, lr}
	if (ch == NULL)
    12ce:	b1c8      	cbz	r0, 1304 <__pi_free+0x38>
	if ((m_size (ch) & MALLOC_UMASK) == 0)
    12d0:	f850 3c04 	ldr.w	r3, [r0, #-4]
    12d4:	2b00      	cmp	r3, #0
    12d6:	db03      	blt.n	12e0 <__pi_free+0x14>
		syserror (EMALLOC, "malg");
    12d8:	2006      	movs	r0, #6
    12da:	490b      	ldr	r1, [pc, #44]	; (1308 <__pi_free+0x3c>)
    12dc:	f7ff f8d6 	bl	48c <__pi_syserror>
	mcfree [MA_NP] += m_size (ch);
    12e0:	490a      	ldr	r1, [pc, #40]	; (130c <__pi_free+0x40>)
		m_size (ch) ^= MALLOC_UMASK;
    12e2:	f103 4300 	add.w	r3, r3, #2147483648	; 0x80000000
	mcfree [MA_NP] += m_size (ch);
    12e6:	680a      	ldr	r2, [r1, #0]
		m_size (ch) ^= MALLOC_UMASK;
    12e8:	f840 3c04 	str.w	r3, [r0, #-4]
	mcfree [MA_NP] += m_size (ch);
    12ec:	4413      	add	r3, r2
    12ee:	600b      	str	r3, [r1, #0]
	QFREE;
    12f0:	f7ff fdf8 	bl	ee4 <qfree>
	if (mevent [MA_NP] . nwait) {
    12f4:	4806      	ldr	r0, [pc, #24]	; (1310 <__pi_free+0x44>)
    12f6:	7803      	ldrb	r3, [r0, #0]
    12f8:	b123      	cbz	r3, 1304 <__pi_free+0x38>
		trigger ((aword)(&(mevent [MA_NP])));
    12fa:	f7ff fee9 	bl	10d0 <__pi_trigger>
		mevent [MA_NP] . nwait --;
    12fe:	7803      	ldrb	r3, [r0, #0]
    1300:	3b01      	subs	r3, #1
    1302:	7003      	strb	r3, [r0, #0]
}
    1304:	bd08      	pop	{r3, pc}
    1306:	bf00      	nop
    1308:	0000436f 	andeq	r4, r0, pc, ror #6
    130c:	20000168 	andcs	r0, r0, r8, ror #2
    1310:	2000016c 	andcs	r0, r0, ip, ror #2

00001314 <kill>:
void kill (aword pid) {
    1314:	b510      	push	{r4, lr}
	if (pid == 0)
    1316:	b908      	cbnz	r0, 131c <kill+0x8>
		pid = (aword) __pi_curr;
    1318:	4b0f      	ldr	r3, [pc, #60]	; (1358 <kill+0x44>)
    131a:	6818      	ldr	r0, [r3, #0]
	j = NULL;
    131c:	2300      	movs	r3, #0
	for_all_tasks (i) {
    131e:	490f      	ldr	r1, [pc, #60]	; (135c <kill+0x48>)
    1320:	680c      	ldr	r4, [r1, #0]
    1322:	b91c      	cbnz	r4, 132c <kill+0x18>
	syserror (EREQPAR, "kpi");
    1324:	2003      	movs	r0, #3
    1326:	490e      	ldr	r1, [pc, #56]	; (1360 <kill+0x4c>)
    1328:	f7ff f8b0 	bl	48c <__pi_syserror>
		if ((aword)i == pid) {
    132c:	4284      	cmp	r4, r0
				__PCB = i->Next;
    132e:	6ae2      	ldr	r2, [r4, #44]	; 0x2c
		if ((aword)i == pid) {
    1330:	d10e      	bne.n	1350 <kill+0x3c>
			if (j == NULL)
    1332:	b95b      	cbnz	r3, 134c <kill+0x38>
				__PCB = i->Next;
    1334:	600a      	str	r2, [r1, #0]
			killev (i);
    1336:	4620      	mov	r0, r4
    1338:	f7ff fdb6 	bl	ea8 <killev>
			ufree (i);
    133c:	f7ff ffc6 	bl	12cc <__pi_free>
			if (i == __pi_curr)
    1340:	4b05      	ldr	r3, [pc, #20]	; (1358 <kill+0x44>)
    1342:	681b      	ldr	r3, [r3, #0]
    1344:	42a3      	cmp	r3, r4
    1346:	d106      	bne.n	1356 <kill+0x42>
				release;
    1348:	f7ff fc48 	bl	bdc <__pi_release>
				j->Next = i->Next;
    134c:	62da      	str	r2, [r3, #44]	; 0x2c
    134e:	e7f2      	b.n	1336 <kill+0x22>
    1350:	4623      	mov	r3, r4
				__PCB = i->Next;
    1352:	4614      	mov	r4, r2
    1354:	e7e5      	b.n	1322 <kill+0xe>
}
    1356:	bd10      	pop	{r4, pc}
    1358:	2000013c 	andcs	r0, r0, ip, lsr r1
    135c:	20000138 	andcs	r0, r0, r8, lsr r1
    1360:	00004374 	andeq	r4, r0, r4, ror r3

00001364 <__pi_malloc>:
	if (size < 8)
    1364:	2807      	cmp	r0, #7
		_size = 2;
    1366:	bf98      	it	ls
    1368:	2002      	movls	r0, #2
aword *__pi_malloc (word size) {
    136a:	b538      	push	{r3, r4, r5, lr}
	for (chunk = mpools [MA_NP]; chunk != NULL; cc = chunk,
    136c:	4b21      	ldr	r3, [pc, #132]	; (13f4 <__pi_malloc+0x90>)
		_size = (((aword)size) + 3) >> 2;
    136e:	bf88      	it	hi
    1370:	3003      	addhi	r0, #3
	for (chunk = mpools [MA_NP]; chunk != NULL; cc = chunk,
    1372:	681c      	ldr	r4, [r3, #0]
		if (m_magic (chunk) != MALLOC_MAGIC)
    1374:	4920      	ldr	r1, [pc, #128]	; (13f8 <__pi_malloc+0x94>)
		_size = (((aword)size) + 3) >> 2;
    1376:	bf88      	it	hi
    1378:	0880      	lsrhi	r0, r0, #2
	for (chunk = mpools [MA_NP]; chunk != NULL; cc = chunk,
    137a:	b94c      	cbnz	r4, 1390 <__pi_malloc+0x2c>
		if (mevent [MA_NP] . nfail != 255)
    137c:	4a1f      	ldr	r2, [pc, #124]	; (13fc <__pi_malloc+0x98>)
    137e:	7853      	ldrb	r3, [r2, #1]
    1380:	2bff      	cmp	r3, #255	; 0xff
    1382:	d001      	beq.n	1388 <__pi_malloc+0x24>
			mevent [MA_NP] . nfail ++;
    1384:	3301      	adds	r3, #1
    1386:	7053      	strb	r3, [r2, #1]
		mnfree [MA_NP] = 0;
    1388:	2200      	movs	r2, #0
    138a:	4b1d      	ldr	r3, [pc, #116]	; (1400 <__pi_malloc+0x9c>)
    138c:	601a      	str	r2, [r3, #0]
	return chunk;
    138e:	e02f      	b.n	13f0 <__pi_malloc+0x8c>
		if (m_magic (chunk) != MALLOC_MAGIC)
    1390:	6862      	ldr	r2, [r4, #4]
    1392:	428a      	cmp	r2, r1
    1394:	d003      	beq.n	139e <__pi_malloc+0x3a>
			syserror (EMALLOC, "malc");
    1396:	2006      	movs	r0, #6
    1398:	491a      	ldr	r1, [pc, #104]	; (1404 <__pi_malloc+0xa0>)
    139a:	f7ff f877 	bl	48c <__pi_syserror>
		if (m_size (chunk) >= _size)
    139e:	e954 5201 	ldrd	r5, r2, [r4, #-4]
    13a2:	4285      	cmp	r5, r0
    13a4:	d202      	bcs.n	13ac <__pi_malloc+0x48>
		chunk = m_nextp (chunk)) {
    13a6:	4623      	mov	r3, r4
    13a8:	4614      	mov	r4, r2
    13aa:	e7e6      	b.n	137a <__pi_malloc+0x16>
		m_setnextp (cc, m_nextp (chunk));
    13ac:	601a      	str	r2, [r3, #0]
		if ((waste = m_size (chunk) - _size) > MAX_MALLOC_WASTE) {
    13ae:	f854 3c04 	ldr.w	r3, [r4, #-4]
    13b2:	1a1b      	subs	r3, r3, r0
    13b4:	2b08      	cmp	r3, #8
    13b6:	d909      	bls.n	13cc <__pi_malloc+0x68>
			m_size (chunk) = _size;
    13b8:	f844 0c04 	str.w	r0, [r4, #-4]
			cc = chunk + _size + m_hdrlen;
    13bc:	3001      	adds	r0, #1
    13be:	eb04 0080 	add.w	r0, r4, r0, lsl #2
			m_size (cc) = waste - m_hdrlen;
    13c2:	3b01      	subs	r3, #1
    13c4:	f840 3c04 	str.w	r3, [r0, #-4]
			QFREE;
    13c8:	f7ff fd8c 	bl	ee4 <qfree>
		mevent [MA_NP] . nfail = 0;
    13cc:	2200      	movs	r2, #0
    13ce:	4b0b      	ldr	r3, [pc, #44]	; (13fc <__pi_malloc+0x98>)
		mcfree [MA_NP] -= m_size (chunk);
    13d0:	490d      	ldr	r1, [pc, #52]	; (1408 <__pi_malloc+0xa4>)
		mevent [MA_NP] . nfail = 0;
    13d2:	705a      	strb	r2, [r3, #1]
		mcfree [MA_NP] -= m_size (chunk);
    13d4:	f854 2c04 	ldr.w	r2, [r4, #-4]
    13d8:	680b      	ldr	r3, [r1, #0]
    13da:	1a9b      	subs	r3, r3, r2
    13dc:	600b      	str	r3, [r1, #0]
		if (mnfree [MA_NP] > mcfree [MA_NP])
    13de:	4908      	ldr	r1, [pc, #32]	; (1400 <__pi_malloc+0x9c>)
		m_size (chunk) |= MALLOC_UMASK;
    13e0:	f042 4200 	orr.w	r2, r2, #2147483648	; 0x80000000
		if (mnfree [MA_NP] > mcfree [MA_NP])
    13e4:	6808      	ldr	r0, [r1, #0]
		m_size (chunk) |= MALLOC_UMASK;
    13e6:	f844 2c04 	str.w	r2, [r4, #-4]
		if (mnfree [MA_NP] > mcfree [MA_NP])
    13ea:	4283      	cmp	r3, r0
			mnfree [MA_NP] = mcfree [MA_NP];
    13ec:	bf38      	it	cc
    13ee:	600b      	strcc	r3, [r1, #0]
}
    13f0:	4620      	mov	r0, r4
    13f2:	bd38      	pop	{r3, r4, r5, pc}
    13f4:	20000174 	andcs	r0, r0, r4, ror r1
    13f8:	deafdeaf 	cdple	14, 10, cr13, cr15, cr15, {5}
    13fc:	2000016c 	andcs	r0, r0, ip, ror #2
    1400:	20000170 	andcs	r0, r0, r0, ror r1
    1404:	00004378 	andeq	r4, r0, r8, ror r3
    1408:	20000168 	andcs	r0, r0, r8, ror #2

0000140c <__pi_fork>:
aword __pi_fork (fsmcode func, aword data) {
    140c:	b538      	push	{r3, r4, r5, lr}
    140e:	4605      	mov	r5, r0
	if ((i = (__pi_pcb_t*) umalloc (sizeof (__pi_pcb_t))) == NULL)
    1410:	2030      	movs	r0, #48	; 0x30
aword __pi_fork (fsmcode func, aword data) {
    1412:	460c      	mov	r4, r1
	if ((i = (__pi_pcb_t*) umalloc (sizeof (__pi_pcb_t))) == NULL)
    1414:	f7ff ffa6 	bl	1364 <__pi_malloc>
    1418:	2300      	movs	r3, #0
    141a:	b138      	cbz	r0, 142c <__pi_fork+0x20>
		if ((j = __PCB) == NULL)
    141c:	4a07      	ldr	r2, [pc, #28]	; (143c <__pi_fork+0x30>)
	i->Status = 0;
    141e:	8003      	strh	r3, [r0, #0]
	i->Next = NULL;
    1420:	62c3      	str	r3, [r0, #44]	; 0x2c
		if ((j = __PCB) == NULL)
    1422:	6813      	ldr	r3, [r2, #0]
	i->data = data;
    1424:	e9c0 5401 	strd	r5, r4, [r0, #4]
		if ((j = __PCB) == NULL)
    1428:	b90b      	cbnz	r3, 142e <__pi_fork+0x22>
			__PCB = i;
    142a:	6010      	str	r0, [r2, #0]
}
    142c:	bd38      	pop	{r3, r4, r5, pc}
			for (; j->Next != NULL; j = j->Next);
    142e:	461a      	mov	r2, r3
    1430:	6adb      	ldr	r3, [r3, #44]	; 0x2c
    1432:	2b00      	cmp	r3, #0
    1434:	d1fb      	bne.n	142e <__pi_fork+0x22>
			j->Next = i;
    1436:	62d0      	str	r0, [r2, #44]	; 0x2c
	return (aword) i;
    1438:	e7f8      	b.n	142c <__pi_fork+0x20>
    143a:	bf00      	nop
    143c:	20000138 	andcs	r0, r0, r8, lsr r1

00001440 <__pi_waitmem>:
	if (mevent [MA_NP] . nwait != 255)
    1440:	4a04      	ldr	r2, [pc, #16]	; (1454 <__pi_waitmem+0x14>)
void __pi_waitmem (word state) {
    1442:	4601      	mov	r1, r0
	if (mevent [MA_NP] . nwait != 255)
    1444:	7813      	ldrb	r3, [r2, #0]
	wait ((aword)(&(mevent [MA_NP])), state);
    1446:	4803      	ldr	r0, [pc, #12]	; (1454 <__pi_waitmem+0x14>)
	if (mevent [MA_NP] . nwait != 255)
    1448:	2bff      	cmp	r3, #255	; 0xff
		mevent [MA_NP] . nwait ++;
    144a:	bf1c      	itt	ne
    144c:	3301      	addne	r3, #1
    144e:	7013      	strbne	r3, [r2, #0]
	wait ((aword)(&(mevent [MA_NP])), state);
    1450:	f7ff be24 	b.w	109c <__pi_wait>
    1454:	2000016c 	andcs	r0, r0, ip, ror #2

00001458 <diag>:

#endif	/* dbg_level */

#if	DIAG_MESSAGES

void diag (const char *mess, ...) {
    1458:	b40f      	push	{r0, r1, r2, r3}
    145a:	e92d 43f7 	stmdb	sp!, {r0, r1, r2, r4, r5, r6, r7, r8, r9, lr}
    145e:	ab0a      	add	r3, sp, #40	; 0x28
    1460:	f853 5b04 	ldr.w	r5, [r3], #4
	sint bc;
	word v;
	byte is;

	va_start (ap, mess);
	diag_disable_int (a, is);
    1464:	2015      	movs	r0, #21
	va_start (ap, mess);
    1466:	9301      	str	r3, [sp, #4]
	diag_disable_int (a, is);
    1468:	f04f 5380 	mov.w	r3, #268435456	; 0x10000000
    146c:	f8d3 31b0 	ldr.w	r3, [r3, #432]	; 0x1b0
				d = (bc == 16) ? 10000 : 1000000000;
				while (1) {
					// Strip initial zeros
					v = (word) (val / d);
					if (v || d == 1) break;
					d /= 10;
    1470:	270a      	movs	r7, #10
	diag_disable_int (a, is);
    1472:	695b      	ldr	r3, [r3, #20]
    1474:	4798      	blx	r3
				d = (bc == 16) ? 10000 : 1000000000;
    1476:	f8df 8118 	ldr.w	r8, [pc, #280]	; 1590 <diag+0x138>
	while (*mess != '\0') {
    147a:	7828      	ldrb	r0, [r5, #0]
    147c:	b9a8      	cbnz	r0, 14aa <diag+0x52>
		} else {
			dgout (*mess++);
		}
	}

	dgout ('\r');
    147e:	200d      	movs	r0, #13
    1480:	f7ff fd70 	bl	f64 <dgout>
	dgout ('\n');
    1484:	200a      	movs	r0, #10
    1486:	f7ff fd6d 	bl	f64 <dgout>
    148a:	4a42      	ldr	r2, [pc, #264]	; (1594 <diag+0x13c>)
    148c:	6993      	ldr	r3, [r2, #24]
	diag_wait (a);
    148e:	071b      	lsls	r3, r3, #28
    1490:	d4fc      	bmi.n	148c <diag+0x34>
	diag_enable_int (a, is);
    1492:	f04f 5380 	mov.w	r3, #268435456	; 0x10000000
    1496:	f8d3 31b0 	ldr.w	r3, [r3, #432]	; 0x1b0
    149a:	2015      	movs	r0, #21
    149c:	691b      	ldr	r3, [r3, #16]
    149e:	4798      	blx	r3
}
    14a0:	b003      	add	sp, #12
    14a2:	e8bd 43f0 	ldmia.w	sp!, {r4, r5, r6, r7, r8, r9, lr}
    14a6:	b004      	add	sp, #16
    14a8:	4770      	bx	lr
		if (*mess == '%') {
    14aa:	2825      	cmp	r0, #37	; 0x25
			mess++;
    14ac:	f105 0601 	add.w	r6, r5, #1
		if (*mess == '%') {
    14b0:	d16b      	bne.n	158a <diag+0x132>
			if (*mess == 'l') {
    14b2:	786b      	ldrb	r3, [r5, #1]
    14b4:	2b6c      	cmp	r3, #108	; 0x6c
    14b6:	9b01      	ldr	r3, [sp, #4]
				mess++;
    14b8:	bf08      	it	eq
    14ba:	1cae      	addeq	r6, r5, #2
    14bc:	f853 1b04 	ldr.w	r1, [r3], #4
				bc = 32;
    14c0:	bf08      	it	eq
    14c2:	2520      	moveq	r5, #32
				val = va_arg (ap, lword);
    14c4:	9301      	str	r3, [sp, #4]
			switch (*mess) {
    14c6:	7833      	ldrb	r3, [r6, #0]
				bc = 16;
    14c8:	bf18      	it	ne
    14ca:	2510      	movne	r5, #16
			switch (*mess) {
    14cc:	2b75      	cmp	r3, #117	; 0x75
				val = va_arg (ap, lword);
    14ce:	460c      	mov	r4, r1
			switch (*mess) {
    14d0:	d04e      	beq.n	1570 <diag+0x118>
    14d2:	d80a      	bhi.n	14ea <diag+0x92>
    14d4:	2b64      	cmp	r3, #100	; 0x64
    14d6:	d01c      	beq.n	1512 <diag+0xba>
    14d8:	2b73      	cmp	r3, #115	; 0x73
    14da:	d052      	beq.n	1582 <diag+0x12a>
				dgout ('%');
    14dc:	2025      	movs	r0, #37	; 0x25
    14de:	f7ff fd41 	bl	f64 <dgout>
				dgout (*mess);
    14e2:	7830      	ldrb	r0, [r6, #0]
    14e4:	f7ff fd3e 	bl	f64 <dgout>
    14e8:	e010      	b.n	150c <diag+0xb4>
			switch (*mess) {
    14ea:	2b78      	cmp	r3, #120	; 0x78
    14ec:	d1f6      	bne.n	14dc <diag+0x84>
    14ee:	2400      	movs	r4, #0
					v = __pi_hex_enc_table [
    14f0:	f8df 90a4 	ldr.w	r9, [pc, #164]	; 1598 <diag+0x140>
					i += 4;
    14f4:	3404      	adds	r4, #4
					(val >> (bc - i)) & 0xf];
    14f6:	1b2b      	subs	r3, r5, r4
    14f8:	fa21 f303 	lsr.w	r3, r1, r3
    14fc:	f003 030f 	and.w	r3, r3, #15
					dgout (v);
    1500:	f819 0003 	ldrb.w	r0, [r9, r3]
    1504:	f7ff fd2e 	bl	f64 <dgout>
				while (i < bc) {
    1508:	42a5      	cmp	r5, r4
    150a:	dcf3      	bgt.n	14f4 <diag+0x9c>
			mess++;
    150c:	3601      	adds	r6, #1
					d /= 10;
    150e:	4635      	mov	r5, r6
    1510:	e7b3      	b.n	147a <diag+0x22>
				if ((val >> (bc - 1)) & 1) {
    1512:	1e6b      	subs	r3, r5, #1
    1514:	fa21 f303 	lsr.w	r3, r1, r3
    1518:	07da      	lsls	r2, r3, #31
    151a:	d509      	bpl.n	1530 <diag+0xd8>
					dgout ('-');
    151c:	202d      	movs	r0, #45	; 0x2d
    151e:	f7ff fd21 	bl	f64 <dgout>
					if (bc == 16)
    1522:	2d10      	cmp	r5, #16
						val |= 0xffff0000;
    1524:	bf04      	itt	eq
    1526:	ea6f 4401 	mvneq.w	r4, r1, lsl #16
    152a:	ea6f 4414 	mvneq.w	r4, r4, lsr #16
					val = ~val + 1;
    152e:	4264      	negs	r4, r4
				d = (bc == 16) ? 10000 : 1000000000;
    1530:	f242 7110 	movw	r1, #10000	; 0x2710
    1534:	2d10      	cmp	r5, #16
    1536:	bf18      	it	ne
    1538:	4641      	movne	r1, r8
					v = (word) (val / d);
    153a:	fbb4 f5f1 	udiv	r5, r4, r1
    153e:	b2ad      	uxth	r5, r5
					if (v || d == 1) break;
    1540:	b935      	cbnz	r5, 1550 <diag+0xf8>
    1542:	2901      	cmp	r1, #1
    1544:	d004      	beq.n	1550 <diag+0xf8>
					d /= 10;
    1546:	fbb1 f1f7 	udiv	r1, r1, r7
					v = (word) (val / d);
    154a:	e7f6      	b.n	153a <diag+0xe2>
				d = (bc == 16) ? 10000 : 1000000000;
    154c:	4910      	ldr	r1, [pc, #64]	; (1590 <diag+0x138>)
    154e:	e7f4      	b.n	153a <diag+0xe2>
					dgout (v + '0');
    1550:	f105 0030 	add.w	r0, r5, #48	; 0x30
    1554:	b280      	uxth	r0, r0
    1556:	f7ff fd05 	bl	f64 <dgout>
					if (d == 0) break;
    155a:	2909      	cmp	r1, #9
					d /= 10;
    155c:	fbb1 f3f7 	udiv	r3, r1, r7
					val = val - (v * d);
    1560:	fb01 4415 	mls	r4, r1, r5, r4
					if (d == 0) break;
    1564:	d9d2      	bls.n	150c <diag+0xb4>
					v = (word) (val / d);
    1566:	fbb4 f5f3 	udiv	r5, r4, r3
					d /= 10;
    156a:	4619      	mov	r1, r3
					v = (word) (val / d);
    156c:	b2ad      	uxth	r5, r5
					dgout (v + '0');
    156e:	e7ef      	b.n	1550 <diag+0xf8>
				if (bc == 16)
    1570:	2d10      	cmp	r5, #16
    1572:	d1eb      	bne.n	154c <diag+0xf4>
					val &= 0xffff;
    1574:	b28c      	uxth	r4, r1
				d = (bc == 16) ? 10000 : 1000000000;
    1576:	f242 7110 	movw	r1, #10000	; 0x2710
    157a:	e7de      	b.n	153a <diag+0xe2>
					dgout (*s);
    157c:	f7ff fcf2 	bl	f64 <dgout>
					s++;
    1580:	3101      	adds	r1, #1
				while (*s != '\0') {
    1582:	7808      	ldrb	r0, [r1, #0]
    1584:	2800      	cmp	r0, #0
    1586:	d1f9      	bne.n	157c <diag+0x124>
    1588:	e7c0      	b.n	150c <diag+0xb4>
			dgout (*mess++);
    158a:	f7ff fceb 	bl	f64 <dgout>
    158e:	e7be      	b.n	150e <diag+0xb6>
    1590:	3b9aca00 	blcc	fe6b3d98 <_estack+0xde6aed98>
    1594:	40001000 	andmi	r1, r0, r0
    1598:	0000437d 	andeq	r4, r0, sp, ror r3

0000159c <lrnd>:
// ============================================================================
// High-quality RNG (oh, well, as high as we can afford) ======================
// ============================================================================
#if RANDOM_NUMBER_GENERATOR > 1
lword lrnd () {
	__pi_seed = __pi_seed * 1103515245 + 12345;
    159c:	f243 0339 	movw	r3, #12345	; 0x3039
    15a0:	4a04      	ldr	r2, [pc, #16]	; (15b4 <lrnd+0x18>)
    15a2:	4905      	ldr	r1, [pc, #20]	; (15b8 <lrnd+0x1c>)
    15a4:	6810      	ldr	r0, [r2, #0]
    15a6:	fb01 3300 	mla	r3, r1, r0, r3
    15aa:	6013      	str	r3, [r2, #0]
	return __pi_seed
#if ENTROPY_COLLECTION
	^ entropy
    15ac:	4a03      	ldr	r2, [pc, #12]	; (15bc <lrnd+0x20>)
    15ae:	6810      	ldr	r0, [r2, #0]
#endif
	;
}
    15b0:	4058      	eors	r0, r3
    15b2:	4770      	bx	lr
    15b4:	20000000 	andcs	r0, r0, r0
    15b8:	41c64e6d 	bicmi	r4, r6, sp, ror #28
    15bc:	20000160 	andcs	r0, r0, r0, ror #2

000015c0 <enq>:
#define	deqhk(a)	CNOP
#endif

// ============================================================================

__PRIVF (PicOSNode, void, enq) (qhead_t *q, hblock_t *p) {
    15c0:	b538      	push	{r3, r4, r5, lr}
/*
 * Inserts a buffer into a queue
 */
	sysassert (p->attributes.b.queued == 0, "tcv01");
    15c2:	7a8b      	ldrb	r3, [r1, #10]
__PRIVF (PicOSNode, void, enq) (qhead_t *q, hblock_t *p) {
    15c4:	4605      	mov	r5, r0
	sysassert (p->attributes.b.queued == 0, "tcv01");
    15c6:	07da      	lsls	r2, r3, #31
__PRIVF (PicOSNode, void, enq) (qhead_t *q, hblock_t *p) {
    15c8:	460c      	mov	r4, r1
	sysassert (p->attributes.b.queued == 0, "tcv01");
    15ca:	d503      	bpl.n	15d4 <enq+0x14>
    15cc:	200a      	movs	r0, #10
    15ce:	490e      	ldr	r1, [pc, #56]	; (1608 <enq+0x48>)
    15d0:	f7fe ff5c 	bl	48c <__pi_syserror>
	if (q_empty (q))
    15d4:	6803      	ldr	r3, [r0, #0]
    15d6:	4283      	cmp	r3, r0
    15d8:	d101      	bne.n	15de <enq+0x1e>
		trigger (q);
    15da:	f7ff fd79 	bl	10d0 <__pi_trigger>
	if (p->attributes.b.urgent) {
    15de:	7aa3      	ldrb	r3, [r4, #10]
    15e0:	075b      	lsls	r3, r3, #29
    15e2:	d50a      	bpl.n	15fa <enq+0x3a>
		// At the front
		p->u.bqueue.next = q->next;
    15e4:	682b      	ldr	r3, [r5, #0]
		p->u.bqueue.prev = q;
    15e6:	e9c4 3500 	strd	r3, r5, [r4]
		q->next->prev = (qitem_t*) p;
    15ea:	682b      	ldr	r3, [r5, #0]
    15ec:	605c      	str	r4, [r3, #4]
		q->next = (qitem_t*) p;
    15ee:	602c      	str	r4, [r5, #0]
		p->u.bqueue.next = q;
		p->u.bqueue.prev = q->prev;
		q->prev->next = (qitem_t*) p;
		q->prev = (qitem_t*) p;
	}
	p->attributes.b.queued = 1;
    15f0:	7aa3      	ldrb	r3, [r4, #10]
    15f2:	f043 0301 	orr.w	r3, r3, #1
    15f6:	72a3      	strb	r3, [r4, #10]
}
    15f8:	bd38      	pop	{r3, r4, r5, pc}
		p->u.bqueue.next = q;
    15fa:	6025      	str	r5, [r4, #0]
		p->u.bqueue.prev = q->prev;
    15fc:	686b      	ldr	r3, [r5, #4]
    15fe:	6063      	str	r3, [r4, #4]
		q->prev->next = (qitem_t*) p;
    1600:	601c      	str	r4, [r3, #0]
		q->prev = (qitem_t*) p;
    1602:	606c      	str	r4, [r5, #4]
    1604:	e7f4      	b.n	15f0 <enq+0x30>
    1606:	bf00      	nop
    1608:	0000438d 	andeq	r4, r0, sp, lsl #7

0000160c <apb>:
/*
 * Forced implicit packet dropping removed. Plugins will have to drop
 * packets explicitly (if they really want to).
 */

__PRIVF (PicOSNode, hblock_t*, apb) (word size) {
    160c:	b510      	push	{r4, lr}
    160e:	4604      	mov	r4, r0
/* ========================================= */
/* Allocates a packet buffer size bytes long */
/* ========================================= */

	hblock_t *p;
	word cs = size + hblenb;
    1610:	300c      	adds	r0, #12

	if ((p = (hblock_t*)b_malloc (cs)) == NULL)
    1612:	b280      	uxth	r0, r0
    1614:	f7ff fea6 	bl	1364 <__pi_malloc>
    1618:	b110      	cbz	r0, 1620 <apb+0x14>

#if	TCV_HOOKS
	p -> hptr = NULL;
#endif
	p -> length = size;
	p -> attributes . value = 0;
    161a:	2300      	movs	r3, #0
	p -> length = size;
    161c:	8104      	strh	r4, [r0, #8]
	p -> attributes . value = 0;
    161e:	8143      	strh	r3, [r0, #10]
#endif
	return p;
	/*
	 * Note that this doesn't initialize the plugin/phys/session stuff.
	 */
}
    1620:	bd10      	pop	{r4, pc}

00001622 <deq>:
	if (p->attributes.b.queued) {
    1622:	7a83      	ldrb	r3, [r0, #10]
    1624:	07db      	lsls	r3, r3, #31
    1626:	d508      	bpl.n	163a <deq+0x18>
		p->u.bqueue.next -> prev = p->u.bqueue.prev;
    1628:	e9d0 2300 	ldrd	r2, r3, [r0]
    162c:	6053      	str	r3, [r2, #4]
		p->u.bqueue.prev -> next = p->u.bqueue.next;
    162e:	6802      	ldr	r2, [r0, #0]
    1630:	601a      	str	r2, [r3, #0]
		p->attributes.b.queued = 0;
    1632:	7a83      	ldrb	r3, [r0, #10]
    1634:	f36f 0300 	bfc	r3, #0, #1
    1638:	7283      	strb	r3, [r0, #10]
}
    163a:	4770      	bx	lr

0000163c <rlp>:
__PRIVF (PicOSNode, void, rlp) (hblock_t *p) {
    163c:	b508      	push	{r3, lr}
	deq (p);	// Remove from queue
    163e:	f7ff fff0 	bl	1622 <deq>
}
    1642:	e8bd 4008 	ldmia.w	sp!, {r3, lr}
	tfree ((address)p);
    1646:	f7ff be41 	b.w	12cc <__pi_free>
	...

0000164c <dispose>:
__PRIVF (PicOSNode, void, dispose) (hblock_t *p, int dv) {
    164c:	b510      	push	{r4, lr}
	switch (dv) {
    164e:	3901      	subs	r1, #1
__PRIVF (PicOSNode, void, dispose) (hblock_t *p, int dv) {
    1650:	4604      	mov	r4, r0
	deq (p);	// Soft dequeue, timer and hook left intact
    1652:	f7ff ffe6 	bl	1622 <deq>
	switch (dv) {
    1656:	2904      	cmp	r1, #4
    1658:	d832      	bhi.n	16c0 <dispose+0x74>
    165a:	e8df f001 	tbb	[pc, r1]
    165e:	1d03072d 	stcne	7, cr0, [r3, #-180]	; 0xffffff4c
    1662:	7a830019 	bvc	fe0c16ce <_estack+0xde0bc6ce>
			p->attributes.b.urgent = 1;
    1666:	f043 0304 	orr.w	r3, r3, #4
    166a:	7283      	strb	r3, [r0, #10]
			verify_ses (p, "dispose ses");
    166c:	8963      	ldrh	r3, [r4, #10]
    166e:	f3c3 03c6 	ubfx	r3, r3, #3, #7
    1672:	2b07      	cmp	r3, #7
    1674:	d803      	bhi.n	167e <dispose+0x32>
    1676:	4a13      	ldr	r2, [pc, #76]	; (16c4 <dispose+0x78>)
    1678:	f852 0023 	ldr.w	r0, [r2, r3, lsl #2]
    167c:	b918      	cbnz	r0, 1686 <dispose+0x3a>
    167e:	4912      	ldr	r1, [pc, #72]	; (16c8 <dispose+0x7c>)
			verify_phy (p, "dispose phy");
    1680:	200a      	movs	r0, #10
    1682:	f7fe ff03 	bl	48c <__pi_syserror>
			enq (&(descriptors [p->attributes.b.session]->rqueue),
    1686:	4621      	mov	r1, r4
}
    1688:	e8bd 4010 	ldmia.w	sp!, {r4, lr}
			enq (oqueues [p->attributes.b.phys], p);
    168c:	f7ff bf98 	b.w	15c0 <enq>
			p->attributes.b.urgent = 1;
    1690:	7a83      	ldrb	r3, [r0, #10]
    1692:	f043 0304 	orr.w	r3, r3, #4
    1696:	7283      	strb	r3, [r0, #10]
			verify_phy (p, "dispose phy");
    1698:	7ae2      	ldrb	r2, [r4, #11]
    169a:	2a5f      	cmp	r2, #95	; 0x5f
    169c:	ea4f 1352 	mov.w	r3, r2, lsr #5
    16a0:	d803      	bhi.n	16aa <dispose+0x5e>
    16a2:	4a0a      	ldr	r2, [pc, #40]	; (16cc <dispose+0x80>)
    16a4:	f852 2023 	ldr.w	r2, [r2, r3, lsl #2]
    16a8:	b90a      	cbnz	r2, 16ae <dispose+0x62>
    16aa:	4909      	ldr	r1, [pc, #36]	; (16d0 <dispose+0x84>)
    16ac:	e7e8      	b.n	1680 <dispose+0x34>
			enq (oqueues [p->attributes.b.phys], p);
    16ae:	4a09      	ldr	r2, [pc, #36]	; (16d4 <dispose+0x88>)
    16b0:	4621      	mov	r1, r4
    16b2:	f852 0023 	ldr.w	r0, [r2, r3, lsl #2]
    16b6:	e7e7      	b.n	1688 <dispose+0x3c>
}
    16b8:	e8bd 4010 	ldmia.w	sp!, {r4, lr}
			rlp (p);
    16bc:	f7ff bfbe 	b.w	163c <rlp>
}
    16c0:	bd10      	pop	{r4, pc}
    16c2:	bf00      	nop
    16c4:	20000178 	andcs	r0, r0, r8, ror r1
    16c8:	00004393 	muleq	r0, r3, r3
    16cc:	200001a4 	andcs	r0, r0, r4, lsr #3
    16d0:	0000439f 	muleq	r0, pc, r3	; <UNPREDICTABLE>
    16d4:	20000198 	mulcs	r0, r8, r1

000016d8 <tcv_endp>:
		/* ===================================== */
		/* Functions callable by the application */
		/* ===================================== */
/* ---------------------------------------------------------------------- */

__PUBLF (PicOSNode, void, tcv_endp) (address p) {
    16d8:	b510      	push	{r4, lr}
 * somewhere or deallocated.
 */
	hblock_t *b;

	b = header (p);
	if (b->attributes.b.outgoing) {
    16da:	f810 2c02 	ldrb.w	r2, [r0, #-2]
	b = header (p);
    16de:	f1a0 040c 	sub.w	r4, r0, #12
	if (b->attributes.b.outgoing) {
    16e2:	0792      	lsls	r2, r2, #30
    16e4:	d522      	bpl.n	172c <tcv_endp+0x54>
		verify_ses (b, "tcv02");
    16e6:	f830 2c02 	ldrh.w	r2, [r0, #-2]
    16ea:	f3c2 02c6 	ubfx	r2, r2, #3, #7
    16ee:	2a07      	cmp	r2, #7
    16f0:	d803      	bhi.n	16fa <tcv_endp+0x22>
    16f2:	4911      	ldr	r1, [pc, #68]	; (1738 <tcv_endp+0x60>)
    16f4:	f851 2022 	ldr.w	r2, [r1, r2, lsl #2]
    16f8:	b91a      	cbnz	r2, 1702 <tcv_endp+0x2a>
    16fa:	4910      	ldr	r1, [pc, #64]	; (173c <tcv_endp+0x64>)
		verify_plg (b, tcv_out, "tcv03");
    16fc:	200a      	movs	r0, #10
    16fe:	f7fe fec5 	bl	48c <__pi_syserror>
    1702:	f810 3c01 	ldrb.w	r3, [r0, #-1]
    1706:	f3c3 0382 	ubfx	r3, r3, #2, #3
    170a:	2b02      	cmp	r3, #2
    170c:	d805      	bhi.n	171a <tcv_endp+0x42>
    170e:	4a0c      	ldr	r2, [pc, #48]	; (1740 <tcv_endp+0x68>)
    1710:	f852 3023 	ldr.w	r3, [r2, r3, lsl #2]
    1714:	b10b      	cbz	r3, 171a <tcv_endp+0x42>
    1716:	691b      	ldr	r3, [r3, #16]
    1718:	b90b      	cbnz	r3, 171e <tcv_endp+0x46>
    171a:	490a      	ldr	r1, [pc, #40]	; (1744 <tcv_endp+0x6c>)
    171c:	e7ee      	b.n	16fc <tcv_endp+0x24>
		dispose (b, plugins [b->attributes.b.plugin] ->
    171e:	4798      	blx	r3
    1720:	4601      	mov	r1, r0
    1722:	4620      	mov	r0, r4
		 * This is a received packet - just drop it, no need to verify
		 * session, can be legitimately invoked after the session has
		 * been closed,
		 */
		rlp (b);
}
    1724:	e8bd 4010 	ldmia.w	sp!, {r4, lr}
		dispose (b, plugins [b->attributes.b.plugin] ->
    1728:	f7ff bf90 	b.w	164c <dispose>
		rlp (b);
    172c:	4620      	mov	r0, r4
}
    172e:	e8bd 4010 	ldmia.w	sp!, {r4, lr}
		rlp (b);
    1732:	f7ff bf83 	b.w	163c <rlp>
    1736:	bf00      	nop
    1738:	20000178 	andcs	r0, r0, r8, ror r1
    173c:	000043ab 	andeq	r4, r0, fp, lsr #7
    1740:	200001bc 			; <UNDEFINED> instruction: 0x200001bc
    1744:	000043b1 			; <UNDEFINED> instruction: 0x000043b1

00001748 <tcv_open>:
#else
// ============================================================================

// Non-blocking open and close

__PUBLF (PicOSNode, int, tcv_open) (word state, int phy, int plid, ... ) {
    1748:	b40c      	push	{r2, r3}
    174a:	e92d 47f3 	stmdb	sp!, {r0, r1, r4, r5, r6, r7, r8, r9, sl, lr}
    174e:	ab0a      	add	r3, sp, #40	; 0x28
    1750:	f853 8b04 	ldr.w	r8, [r3], #4
	va_list		ap;
	va_start (ap, plid);

#if DIAG_MESSAGES > 1
	/* Check if we have the plugin and the phy */
	if (phy < 0 || phy >= TCV_MAX_PHYS || oqueues [phy] == NULL ||
    1754:	2902      	cmp	r1, #2
__PUBLF (PicOSNode, int, tcv_open) (word state, int phy, int plid, ... ) {
    1756:	460f      	mov	r7, r1
	va_start (ap, plid);
    1758:	9301      	str	r3, [sp, #4]
	if (phy < 0 || phy >= TCV_MAX_PHYS || oqueues [phy] == NULL ||
    175a:	d80b      	bhi.n	1774 <tcv_open+0x2c>
    175c:	4b24      	ldr	r3, [pc, #144]	; (17f0 <tcv_open+0xa8>)
    175e:	f853 3021 	ldr.w	r3, [r3, r1, lsl #2]
    1762:	b13b      	cbz	r3, 1774 <tcv_open+0x2c>
		plid < 0 || plid >= TCV_MAX_PLUGS || plugins [plid] == NULL)
    1764:	f1b8 0f02 	cmp.w	r8, #2
    1768:	d804      	bhi.n	1774 <tcv_open+0x2c>
    176a:	f8df 9088 	ldr.w	r9, [pc, #136]	; 17f4 <tcv_open+0xac>
    176e:	f859 3028 	ldr.w	r3, [r9, r8, lsl #2]
    1772:	b91b      	cbnz	r3, 177c <tcv_open+0x34>
			syserror (ENODEVICE, "tcv04");
    1774:	2001      	movs	r0, #1
    1776:	4920      	ldr	r1, [pc, #128]	; (17f8 <tcv_open+0xb0>)
	if (fd == TCV_MAX_DESC)
		return ERROR;

	s = (sesdesc_t*) s_malloc (sizeof (sesdesc_t));
	if (s == NULL)
		syserror (EMALLOC, "tcv05");
    1778:	f7fe fe88 	bl	48c <__pi_syserror>
	attp.b.outgoing = 1;
    177c:	f008 0307 	and.w	r3, r8, #7
    1780:	029b      	lsls	r3, r3, #10
    1782:	f043 0302 	orr.w	r3, r3, #2
    1786:	ea43 3541 	orr.w	r5, r3, r1, lsl #13
	for (fd = 0; fd < TCV_MAX_DESC; fd++)
    178a:	4b1c      	ldr	r3, [pc, #112]	; (17fc <tcv_open+0xb4>)
    178c:	2600      	movs	r6, #0
    178e:	469a      	mov	sl, r3
		if (descriptors [fd] == NULL)
    1790:	f853 2b04 	ldr.w	r2, [r3], #4
    1794:	b312      	cbz	r2, 17dc <tcv_open+0x94>
	for (fd = 0; fd < TCV_MAX_DESC; fd++)
    1796:	3601      	adds	r6, #1
    1798:	2e08      	cmp	r6, #8
    179a:	d1f9      	bne.n	1790 <tcv_open+0x48>
		return ERROR;
    179c:	f04f 36ff 	mov.w	r6, #4294967295	; 0xffffffff
		return ERROR;
	}

	descriptors [fd] = s;
	return fd;
}
    17a0:	4630      	mov	r0, r6
    17a2:	b002      	add	sp, #8
    17a4:	e8bd 47f0 	ldmia.w	sp!, {r4, r5, r6, r7, r8, r9, sl, lr}
    17a8:	b002      	add	sp, #8
    17aa:	4770      	bx	lr
	s->attpattern.b.session = fd;
    17ac:	462b      	mov	r3, r5
    17ae:	f366 03c9 	bfi	r3, r6, #3, #7
	descriptors [fd] = s;
    17b2:	f84a 4026 	str.w	r4, [sl, r6, lsl #2]
	s->attpattern.b.session = fd;
    17b6:	8123      	strh	r3, [r4, #8]
	q_init (&(s->rqueue));
    17b8:	e9c4 4400 	strd	r4, r4, [r4]
	sysassert (plugins [plid] -> tcv_ope != NULL, "tcv06");
    17bc:	f859 3028 	ldr.w	r3, [r9, r8, lsl #2]
    17c0:	681b      	ldr	r3, [r3, #0]
    17c2:	b913      	cbnz	r3, 17ca <tcv_open+0x82>
    17c4:	200a      	movs	r0, #10
    17c6:	490e      	ldr	r1, [pc, #56]	; (1800 <tcv_open+0xb8>)
    17c8:	e7d6      	b.n	1778 <tcv_open+0x30>
	if (plugins [plid] -> tcv_ope (phy, fd, ap)) {
    17ca:	4631      	mov	r1, r6
    17cc:	4638      	mov	r0, r7
    17ce:	9a01      	ldr	r2, [sp, #4]
    17d0:	4798      	blx	r3
    17d2:	2800      	cmp	r0, #0
    17d4:	d1e2      	bne.n	179c <tcv_open+0x54>
	descriptors [fd] = s;
    17d6:	f84a 4026 	str.w	r4, [sl, r6, lsl #2]
	return fd;
    17da:	e7e1      	b.n	17a0 <tcv_open+0x58>
	s = (sesdesc_t*) s_malloc (sizeof (sesdesc_t));
    17dc:	200c      	movs	r0, #12
    17de:	f7ff fdc1 	bl	1364 <__pi_malloc>
	if (s == NULL)
    17e2:	4604      	mov	r4, r0
    17e4:	2800      	cmp	r0, #0
    17e6:	d1e1      	bne.n	17ac <tcv_open+0x64>
		syserror (EMALLOC, "tcv05");
    17e8:	2006      	movs	r0, #6
    17ea:	4906      	ldr	r1, [pc, #24]	; (1804 <tcv_open+0xbc>)
    17ec:	e7c4      	b.n	1778 <tcv_open+0x30>
    17ee:	bf00      	nop
    17f0:	20000198 	mulcs	r0, r8, r1
    17f4:	200001bc 			; <UNDEFINED> instruction: 0x200001bc
    17f8:	000043b7 			; <UNDEFINED> instruction: 0x000043b7
    17fc:	20000178 	andcs	r0, r0, r8, ror r1
    1800:	000043c3 	andeq	r4, r0, r3, asr #7
    1804:	000043bd 			; <UNDEFINED> instruction: 0x000043bd

00001808 <tcv_plug>:

__PUBLF (PicOSNode, int, tcv_plug) (int ord, const tcvplug_t *pl) {
/*
 * This is one way now. Later we may implement switching plugs on the fly.
 */
	if (ord < 0 || ord >= TCV_MAX_PLUGS ||
    1808:	2802      	cmp	r0, #2
    180a:	d809      	bhi.n	1820 <tcv_plug+0x18>
	    (plugins [ord] != NULL && plugins [ord] != pl))
    180c:	4b06      	ldr	r3, [pc, #24]	; (1828 <tcv_plug+0x20>)
    180e:	f853 2020 	ldr.w	r2, [r3, r0, lsl #2]
	if (ord < 0 || ord >= TCV_MAX_PLUGS ||
    1812:	b10a      	cbz	r2, 1818 <tcv_plug+0x10>
	    (plugins [ord] != NULL && plugins [ord] != pl))
    1814:	428a      	cmp	r2, r1
    1816:	d103      	bne.n	1820 <tcv_plug+0x18>
		return ERROR;

	plugins [ord] = pl;
    1818:	f843 1020 	str.w	r1, [r3, r0, lsl #2]
	return 0;
    181c:	2000      	movs	r0, #0
    181e:	4770      	bx	lr
		return ERROR;
    1820:	f04f 30ff 	mov.w	r0, #4294967295	; 0xffffffff
}
    1824:	4770      	bx	lr
    1826:	bf00      	nop
    1828:	200001bc 			; <UNDEFINED> instruction: 0x200001bc

0000182c <tcv_rnp>:
 */
	address p;
	hblock_t *b;
	qhead_t *rq;

	verify_fds (fd, "tcv10");
    182c:	2908      	cmp	r1, #8
__PUBLF (PicOSNode, address, tcv_rnp) (word state, int fd) {
    182e:	b538      	push	{r3, r4, r5, lr}
    1830:	4603      	mov	r3, r0
	verify_fds (fd, "tcv10");
    1832:	d803      	bhi.n	183c <tcv_rnp+0x10>
    1834:	4a19      	ldr	r2, [pc, #100]	; (189c <tcv_rnp+0x70>)
    1836:	f852 0021 	ldr.w	r0, [r2, r1, lsl #2]
    183a:	b918      	cbnz	r0, 1844 <tcv_rnp+0x18>
    183c:	4918      	ldr	r1, [pc, #96]	; (18a0 <tcv_rnp+0x74>)
	deqtm (b);	// ... and clear its timer

	/* Packet pointer */
	p = ((address)(b + 1));
	/* Set the pointers to application data */
	verify_plg (b, tcv_frm, "tcv11");
    183e:	200a      	movs	r0, #10
    1840:	f7fe fe24 	bl	48c <__pi_syserror>
	b = q_first (rq);
    1844:	6804      	ldr	r4, [r0, #0]
	if (q_end (b, rq)) {
    1846:	42a0      	cmp	r0, r4
    1848:	d108      	bne.n	185c <tcv_rnp+0x30>
		if (state != WNONE) {
    184a:	f64f 72ff 	movw	r2, #65535	; 0xffff
    184e:	4293      	cmp	r3, r2
    1850:	d021      	beq.n	1896 <tcv_rnp+0x6a>
			when (rq, state);
    1852:	4619      	mov	r1, r3
    1854:	f7ff fc22 	bl	109c <__pi_wait>
			release;
    1858:	f7ff f9c0 	bl	bdc <__pi_release>
	deq (b);	// Dequeue the packet ...
    185c:	4620      	mov	r0, r4
    185e:	f7ff fee0 	bl	1622 <deq>
	verify_plg (b, tcv_frm, "tcv11");
    1862:	7ae3      	ldrb	r3, [r4, #11]
	p = ((address)(b + 1));
    1864:	f104 050c 	add.w	r5, r4, #12
	verify_plg (b, tcv_frm, "tcv11");
    1868:	f3c3 0382 	ubfx	r3, r3, #2, #3
    186c:	2b02      	cmp	r3, #2
    186e:	d805      	bhi.n	187c <tcv_rnp+0x50>
    1870:	4a0c      	ldr	r2, [pc, #48]	; (18a4 <tcv_rnp+0x78>)
    1872:	f852 3023 	ldr.w	r3, [r2, r3, lsl #2]
    1876:	b10b      	cbz	r3, 187c <tcv_rnp+0x50>
    1878:	68db      	ldr	r3, [r3, #12]
    187a:	b90b      	cbnz	r3, 1880 <tcv_rnp+0x54>
    187c:	490a      	ldr	r1, [pc, #40]	; (18a8 <tcv_rnp+0x7c>)
    187e:	e7de      	b.n	183e <tcv_rnp+0x12>
	plugins [b->attributes.b.plugin]->tcv_frm (p, &(b->u.pointers));
    1880:	4621      	mov	r1, r4
    1882:	4628      	mov	r0, r5
    1884:	4798      	blx	r3
	/* Adjust the second pointer to look like the length */
	b->u.pointers.tail =
		b->length - b->u.pointers.head - b->u.pointers.tail;
    1886:	8823      	ldrh	r3, [r4, #0]
    1888:	8862      	ldrh	r2, [r4, #2]
    188a:	441a      	add	r2, r3
    188c:	8923      	ldrh	r3, [r4, #8]
    188e:	1a9b      	subs	r3, r3, r2
	b->u.pointers.tail =
    1890:	8063      	strh	r3, [r4, #2]
	/* OK, it seems that we are set */
	return p;
}
    1892:	4628      	mov	r0, r5
    1894:	bd38      	pop	{r3, r4, r5, pc}
		return NULL;
    1896:	2500      	movs	r5, #0
    1898:	e7fb      	b.n	1892 <tcv_rnp+0x66>
    189a:	bf00      	nop
    189c:	20000178 	andcs	r0, r0, r8, ror r1
    18a0:	000043c9 	andeq	r4, r0, r9, asr #7
    18a4:	200001bc 			; <UNDEFINED> instruction: 0x200001bc
    18a8:	000043cf 	andeq	r4, r0, pc, asr #7

000018ac <tcv_wnps>:
	hblock_t *b;
	tcvadp_t ptrs;
	sesdesc_t *s;
	int eid;

	verify_fds (fd, "tcv16");
    18ac:	2908      	cmp	r1, #8
								Boolean urg) {
    18ae:	b5f7      	push	{r0, r1, r2, r4, r5, r6, r7, lr}
    18b0:	4605      	mov	r5, r0
    18b2:	4614      	mov	r4, r2
    18b4:	461e      	mov	r6, r3
	verify_fds (fd, "tcv16");
    18b6:	d803      	bhi.n	18c0 <tcv_wnps+0x14>
    18b8:	4b26      	ldr	r3, [pc, #152]	; (1954 <tcv_wnps+0xa8>)
    18ba:	f853 7021 	ldr.w	r7, [r3, r1, lsl #2]
    18be:	b91f      	cbnz	r7, 18c8 <tcv_wnps+0x1c>
    18c0:	4925      	ldr	r1, [pc, #148]	; (1958 <tcv_wnps+0xac>)

	s = descriptors [fd];

	verify_pld (s, tcv_frm, "tcv17");
    18c2:	200a      	movs	r0, #10
    18c4:	f7fe fde2 	bl	48c <__pi_syserror>
    18c8:	7a7b      	ldrb	r3, [r7, #9]
    18ca:	f3c3 0382 	ubfx	r3, r3, #2, #3
    18ce:	2b02      	cmp	r3, #2
    18d0:	d805      	bhi.n	18de <tcv_wnps+0x32>
    18d2:	4a22      	ldr	r2, [pc, #136]	; (195c <tcv_wnps+0xb0>)
    18d4:	f852 3023 	ldr.w	r3, [r2, r3, lsl #2]
    18d8:	b10b      	cbz	r3, 18de <tcv_wnps+0x32>
    18da:	68db      	ldr	r3, [r3, #12]
    18dc:	b90b      	cbnz	r3, 18e2 <tcv_wnps+0x36>
    18de:	4920      	ldr	r1, [pc, #128]	; (1960 <tcv_wnps+0xb4>)
    18e0:	e7ef      	b.n	18c2 <tcv_wnps+0x16>

	// tcv_frm invoked with packet == NULL, pass in the frame parameters
	// the session and urgent flag
	ptrs.head = (word) fd;
    18e2:	f8ad 1004 	strh.w	r1, [sp, #4]
	ptrs.tail = (word) urg;

	if ((eid = plugins [s->attpattern.b.plugin]->tcv_frm (NULL, &ptrs))) {
    18e6:	2000      	movs	r0, #0
	ptrs.tail = (word) urg;
    18e8:	f8ad 6006 	strh.w	r6, [sp, #6]
	if ((eid = plugins [s->attpattern.b.plugin]->tcv_frm (NULL, &ptrs))) {
    18ec:	a901      	add	r1, sp, #4
    18ee:	4798      	blx	r3
    18f0:	b158      	cbz	r0, 190a <tcv_wnps+0x5e>
		// Blocked by the plugin
		if (state != WNONE) {
    18f2:	f64f 73ff 	movw	r3, #65535	; 0xffff
    18f6:	429d      	cmp	r5, r3
    18f8:	d102      	bne.n	1900 <tcv_wnps+0x54>
			when (eid, state);
			release;
		}
		return NULL;
    18fa:	2000      	movs	r0, #0
		b->attributes.b.urgent = 1;
	b->u.pointers.head = ptrs.head;
	b->u.pointers.tail = length;

	return (address) (b + 1);
}
    18fc:	b003      	add	sp, #12
    18fe:	bdf0      	pop	{r4, r5, r6, r7, pc}
			when (eid, state);
    1900:	4629      	mov	r1, r5
    1902:	f7ff fbcb 	bl	109c <__pi_wait>
			release;
    1906:	f7ff f969 	bl	bdc <__pi_release>
	sysassert (s->attpattern.b.queued == 0, "tcv18");
    190a:	7a3b      	ldrb	r3, [r7, #8]
    190c:	07db      	lsls	r3, r3, #31
    190e:	d501      	bpl.n	1914 <tcv_wnps+0x68>
    1910:	4914      	ldr	r1, [pc, #80]	; (1964 <tcv_wnps+0xb8>)
    1912:	e7d6      	b.n	18c2 <tcv_wnps+0x16>
	if ((b = apb (length + ptrs . head + ptrs . tail)) == NULL) {
    1914:	f8bd 0004 	ldrh.w	r0, [sp, #4]
    1918:	f8bd 3006 	ldrh.w	r3, [sp, #6]
    191c:	b2a4      	uxth	r4, r4
    191e:	4418      	add	r0, r3
    1920:	4420      	add	r0, r4
    1922:	b280      	uxth	r0, r0
    1924:	f7ff fe72 	bl	160c <apb>
    1928:	b938      	cbnz	r0, 193a <tcv_wnps+0x8e>
		if (state != WNONE) {
    192a:	f64f 73ff 	movw	r3, #65535	; 0xffff
    192e:	429d      	cmp	r5, r3
    1930:	d0e3      	beq.n	18fa <tcv_wnps+0x4e>
			tmwait (state);
    1932:	4628      	mov	r0, r5
    1934:	f7ff fd84 	bl	1440 <__pi_waitmem>
    1938:	e7e5      	b.n	1906 <tcv_wnps+0x5a>
	b->attributes = s->attpattern;
    193a:	893b      	ldrh	r3, [r7, #8]
    193c:	8143      	strh	r3, [r0, #10]
	if (urg)
    193e:	b11e      	cbz	r6, 1948 <tcv_wnps+0x9c>
		b->attributes.b.urgent = 1;
    1940:	7a83      	ldrb	r3, [r0, #10]
    1942:	f043 0304 	orr.w	r3, r3, #4
    1946:	7283      	strb	r3, [r0, #10]
	b->u.pointers.head = ptrs.head;
    1948:	f8bd 3004 	ldrh.w	r3, [sp, #4]
	b->u.pointers.tail = length;
    194c:	8044      	strh	r4, [r0, #2]
	b->u.pointers.head = ptrs.head;
    194e:	8003      	strh	r3, [r0, #0]
	return (address) (b + 1);
    1950:	300c      	adds	r0, #12
    1952:	e7d3      	b.n	18fc <tcv_wnps+0x50>
    1954:	20000178 	andcs	r0, r0, r8, ror r1
    1958:	000043d5 	ldrdeq	r4, [r0], -r5
    195c:	200001bc 			; <UNDEFINED> instruction: 0x200001bc
    1960:	000043db 	ldrdeq	r4, [r0], -fp
    1964:	000043e1 	andeq	r4, r0, r1, ror #7

00001968 <tcvp_control>:
	           /* ================================ */
	           /* Functions callable by the plugin */
	           /* ================================ */
/* ---------------------------------------------------------------------- */

__PUBLF (PicOSNode, int, tcvp_control) (int phy, int opt, address arg) {
    1968:	4603      	mov	r3, r0
/*
 * Plugin version of interface control
 */
	verify_fph (phy, "tcv23");
    196a:	2b03      	cmp	r3, #3
__PUBLF (PicOSNode, int, tcvp_control) (int phy, int opt, address arg) {
    196c:	4608      	mov	r0, r1
    196e:	b510      	push	{r4, lr}
    1970:	4611      	mov	r1, r2
	verify_fph (phy, "tcv23");
    1972:	d803      	bhi.n	197c <tcvp_control+0x14>
    1974:	4a05      	ldr	r2, [pc, #20]	; (198c <tcvp_control+0x24>)
    1976:	f852 3023 	ldr.w	r3, [r2, r3, lsl #2]
    197a:	b91b      	cbnz	r3, 1984 <tcvp_control+0x1c>
    197c:	200a      	movs	r0, #10
    197e:	4904      	ldr	r1, [pc, #16]	; (1990 <tcvp_control+0x28>)
    1980:	f7fe fd84 	bl	48c <__pi_syserror>
	return (physical [phy]) (opt, arg);
}
    1984:	e8bd 4010 	ldmia.w	sp!, {r4, lr}
	return (physical [phy]) (opt, arg);
    1988:	4718      	bx	r3
    198a:	bf00      	nop
    198c:	200001a4 	andcs	r0, r0, r4, lsr #3
    1990:	000043e7 	andeq	r4, r0, r7, ror #7

00001994 <tcv_control>:
__PUBLF (PicOSNode, int, tcv_control) (int fd, int opt, address arg) {
    1994:	b508      	push	{r3, lr}
	if (opt < 0) {
    1996:	1e0b      	subs	r3, r1, #0
    1998:	da11      	bge.n	19be <tcv_control+0x2a>
		if (fd < 0)
    199a:	2800      	cmp	r0, #0
    199c:	db1f      	blt.n	19de <tcv_control+0x4a>
		if (opt == PHYSOPT_PLUGINFO) {
    199e:	3301      	adds	r3, #1
    19a0:	d107      	bne.n	19b2 <tcv_control+0x1e>
			if (fd >= TCV_MAX_PLUGS)
    19a2:	2802      	cmp	r0, #2
    19a4:	dc1b      	bgt.n	19de <tcv_control+0x4a>
			if ((p = plugins [fd]) == NULL)
    19a6:	4b0f      	ldr	r3, [pc, #60]	; (19e4 <tcv_control+0x50>)
    19a8:	f853 0020 	ldr.w	r0, [r3, r0, lsl #2]
    19ac:	b100      	cbz	r0, 19b0 <tcv_control+0x1c>
			return p->tcv_info;
    19ae:	69c0      	ldr	r0, [r0, #28]
}
    19b0:	bd08      	pop	{r3, pc}
		if (fd >= TCV_MAX_PHYS)
    19b2:	2802      	cmp	r0, #2
    19b4:	dc13      	bgt.n	19de <tcv_control+0x4a>
		return physinfo [fd];
    19b6:	4b0c      	ldr	r3, [pc, #48]	; (19e8 <tcv_control+0x54>)
    19b8:	f853 0020 	ldr.w	r0, [r3, r0, lsl #2]
    19bc:	e7f8      	b.n	19b0 <tcv_control+0x1c>
	verify_fds (fd, "tcv22");
    19be:	2808      	cmp	r0, #8
    19c0:	d803      	bhi.n	19ca <tcv_control+0x36>
    19c2:	4b0a      	ldr	r3, [pc, #40]	; (19ec <tcv_control+0x58>)
    19c4:	f853 3020 	ldr.w	r3, [r3, r0, lsl #2]
    19c8:	b91b      	cbnz	r3, 19d2 <tcv_control+0x3e>
    19ca:	200a      	movs	r0, #10
    19cc:	4908      	ldr	r1, [pc, #32]	; (19f0 <tcv_control+0x5c>)
    19ce:	f7fe fd5d 	bl	48c <__pi_syserror>
	return tcvp_control (descriptors [fd] -> attpattern.b.phys, opt, arg);
    19d2:	7a58      	ldrb	r0, [r3, #9]
}
    19d4:	e8bd 4008 	ldmia.w	sp!, {r3, lr}
	return tcvp_control (descriptors [fd] -> attpattern.b.phys, opt, arg);
    19d8:	0940      	lsrs	r0, r0, #5
    19da:	f7ff bfc5 	b.w	1968 <tcvp_control>
			return 0;
    19de:	2000      	movs	r0, #0
    19e0:	e7e6      	b.n	19b0 <tcv_control+0x1c>
    19e2:	bf00      	nop
    19e4:	200001bc 			; <UNDEFINED> instruction: 0x200001bc
    19e8:	200001b0 			; <UNDEFINED> instruction: 0x200001b0
    19ec:	20000178 	andcs	r0, r0, r8, ror r1
    19f0:	000043ed 	andeq	r4, r0, sp, ror #7

000019f4 <tcvp_new>:
 * Plugin-visible dispose
 */
	dispose (header (p), dsp);
}

__PUBLF (PicOSNode, address, tcvp_new) (int size, int dsp, int ses) {
    19f4:	b5f8      	push	{r3, r4, r5, r6, r7, lr}
    19f6:	b280      	uxth	r0, r0
    19f8:	4615      	mov	r5, r2
/*
 * Create a new packet with attributes inherited from the session
 */
	hblock_t *p;

	if (dsp != TCV_DSP_PASS) {
    19fa:	460e      	mov	r6, r1
    19fc:	b309      	cbz	r1, 1a42 <tcvp_new+0x4e>

		/* Session must be defined for that */
		if (ses == NONE)
    19fe:	1c53      	adds	r3, r2, #1
    1a00:	d103      	bne.n	1a0a <tcvp_new+0x16>
			syserror (EREQPAR, "tcv26");
    1a02:	2003      	movs	r0, #3
    1a04:	4912      	ldr	r1, [pc, #72]	; (1a50 <tcvp_new+0x5c>)
		verify_fds (ses, "tcv27");
    1a06:	f7fe fd41 	bl	48c <__pi_syserror>
    1a0a:	2a08      	cmp	r2, #8
    1a0c:	d803      	bhi.n	1a16 <tcvp_new+0x22>
    1a0e:	4f11      	ldr	r7, [pc, #68]	; (1a54 <tcvp_new+0x60>)
    1a10:	f857 3022 	ldr.w	r3, [r7, r2, lsl #2]
    1a14:	b913      	cbnz	r3, 1a1c <tcvp_new+0x28>
    1a16:	200a      	movs	r0, #10
    1a18:	490f      	ldr	r1, [pc, #60]	; (1a58 <tcvp_new+0x64>)
    1a1a:	e7f4      	b.n	1a06 <tcvp_new+0x12>
			TCV_LIMIT_XMT)) {
		       		// Drop
		    	   	return NULL;
		}
#endif
		if ((p = apb (size)) != NULL) {
    1a1c:	f7ff fdf6 	bl	160c <apb>
    1a20:	4604      	mov	r4, r0
    1a22:	b908      	cbnz	r0, 1a28 <tcvp_new+0x34>
			/* If you accidentally call tcv_endp on it */
			p->attributes.b.outgoing = 0;
			dispose (p, dsp);
			return (address)(p + 1);
		}
		return NULL;
    1a24:	2000      	movs	r0, #0

	if ((p = apb (size)) != NULL)
		return (address)(p + 1);
	else
		return NULL;
}
    1a26:	bdf8      	pop	{r3, r4, r5, r6, r7, pc}
			p->attributes = descriptors [ses] -> attpattern;
    1a28:	f857 3025 	ldr.w	r3, [r7, r5, lsl #2]
			dispose (p, dsp);
    1a2c:	4631      	mov	r1, r6
			p->attributes = descriptors [ses] -> attpattern;
    1a2e:	891b      	ldrh	r3, [r3, #8]
    1a30:	8143      	strh	r3, [r0, #10]
			p->attributes.b.outgoing = 0;
    1a32:	f36f 0341 	bfc	r3, #1, #1
    1a36:	7283      	strb	r3, [r0, #10]
			dispose (p, dsp);
    1a38:	f7ff fe08 	bl	164c <dispose>
			return (address)(p + 1);
    1a3c:	f104 000c 	add.w	r0, r4, #12
    1a40:	e7f1      	b.n	1a26 <tcvp_new+0x32>
	if ((p = apb (size)) != NULL)
    1a42:	f7ff fde3 	bl	160c <apb>
    1a46:	2800      	cmp	r0, #0
    1a48:	d0ec      	beq.n	1a24 <tcvp_new+0x30>
		return (address)(p + 1);
    1a4a:	300c      	adds	r0, #12
    1a4c:	e7eb      	b.n	1a26 <tcvp_new+0x32>
    1a4e:	bf00      	nop
    1a50:	000043f3 	strdeq	r4, [r0], -r3
    1a54:	20000178 	andcs	r0, r0, r8, ror r1
    1a58:	000043f9 	strdeq	r4, [r0], -r9

00001a5c <tcvphy_reg>:
 * points to a function that controls (i.e., changes the options of) the
 * interface.
 */
	qhead_t *q;

	if (phy < 0 || phy >= TCV_MAX_PHYS || physical [phy] != NULL)
    1a5c:	2802      	cmp	r0, #2
__PUBLF (PicOSNode, int, tcvphy_reg) (int phy, ctrlfun_t ps, int info) {
    1a5e:	b510      	push	{r4, lr}
    1a60:	4604      	mov	r4, r0
	if (phy < 0 || phy >= TCV_MAX_PHYS || physical [phy] != NULL)
    1a62:	d803      	bhi.n	1a6c <tcvphy_reg+0x10>
    1a64:	4b0c      	ldr	r3, [pc, #48]	; (1a98 <tcvphy_reg+0x3c>)
    1a66:	f853 0020 	ldr.w	r0, [r3, r0, lsl #2]
    1a6a:	b118      	cbz	r0, 1a74 <tcvphy_reg+0x18>
		syserror (EREQPAR, "tcv28");
    1a6c:	2003      	movs	r0, #3
    1a6e:	490b      	ldr	r1, [pc, #44]	; (1a9c <tcvphy_reg+0x40>)
	physical [phy] = ps;
	physinfo [phy] = info;

	oqueues [phy] = q = (qhead_t*) q_malloc (sizeof (qhead_t));
	if (q == NULL)
		syserror (EMALLOC, "tcv29");
    1a70:	f7fe fd0c 	bl	48c <__pi_syserror>
	physical [phy] = ps;
    1a74:	f843 1024 	str.w	r1, [r3, r4, lsl #2]
	physinfo [phy] = info;
    1a78:	4b09      	ldr	r3, [pc, #36]	; (1aa0 <tcvphy_reg+0x44>)
	oqueues [phy] = q = (qhead_t*) q_malloc (sizeof (qhead_t));
    1a7a:	2008      	movs	r0, #8
	physinfo [phy] = info;
    1a7c:	f843 2024 	str.w	r2, [r3, r4, lsl #2]
	oqueues [phy] = q = (qhead_t*) q_malloc (sizeof (qhead_t));
    1a80:	f7ff fc70 	bl	1364 <__pi_malloc>
    1a84:	4a07      	ldr	r2, [pc, #28]	; (1aa4 <tcvphy_reg+0x48>)
    1a86:	f842 0024 	str.w	r0, [r2, r4, lsl #2]
	if (q == NULL)
    1a8a:	b910      	cbnz	r0, 1a92 <tcvphy_reg+0x36>
		syserror (EMALLOC, "tcv29");
    1a8c:	2006      	movs	r0, #6
    1a8e:	4906      	ldr	r1, [pc, #24]	; (1aa8 <tcvphy_reg+0x4c>)
    1a90:	e7ee      	b.n	1a70 <tcvphy_reg+0x14>
	q_init (q);
    1a92:	e9c0 0000 	strd	r0, r0, [r0]
	/*
	 * Queue event identifier (which happens to be the queue pointer
	 * in disguise).
	 */
	return ptrtoint (q);
}
    1a96:	bd10      	pop	{r4, pc}
    1a98:	200001a4 	andcs	r0, r0, r4, lsr #3
    1a9c:	000043ff 	strdeq	r4, [r0], -pc	; <UNPREDICTABLE>
    1aa0:	200001b0 			; <UNDEFINED> instruction: 0x200001b0
    1aa4:	20000198 	mulcs	r0, r8, r1
    1aa8:	00004405 	andeq	r4, r0, r5, lsl #8

00001aac <tcvphy_rcv>:

__PUBLF (PicOSNode, int, tcvphy_rcv) (int phy, address p, int len) {
    1aac:	e92d 4ff0 	stmdb	sp!, {r4, r5, r6, r7, r8, r9, sl, fp, lr}
 */
	int plg, dsp, ses;
	tcvadp_t ap;
	address c;

	verify_fph (phy, "tcv30");
    1ab0:	2803      	cmp	r0, #3
__PUBLF (PicOSNode, int, tcvphy_rcv) (int phy, address p, int len) {
    1ab2:	4605      	mov	r5, r0
    1ab4:	460e      	mov	r6, r1
    1ab6:	4614      	mov	r4, r2
    1ab8:	b085      	sub	sp, #20
	verify_fph (phy, "tcv30");
    1aba:	d803      	bhi.n	1ac4 <tcvphy_rcv+0x18>
    1abc:	4b1f      	ldr	r3, [pc, #124]	; (1b3c <tcvphy_rcv+0x90>)
    1abe:	f853 3020 	ldr.w	r3, [r3, r0, lsl #2]
    1ac2:	b91b      	cbnz	r3, 1acc <tcvphy_rcv+0x20>
    1ac4:	491e      	ldr	r1, [pc, #120]	; (1b40 <tcvphy_rcv+0x94>)
		 * (or fall back) plugins to be used when none of the
		 * "specific" plugins claims the packet.
		 */
		if (plugins [plg] == NULL)
			continue;
		sysassert (plugins [plg] -> tcv_rcv != NULL, "tcv31");
    1ac6:	200a      	movs	r0, #10
    1ac8:	f7fe fce0 	bl	48c <__pi_syserror>
    1acc:	f8df 8074 	ldr.w	r8, [pc, #116]	; 1b44 <tcvphy_rcv+0x98>
		if ((dsp = plugins [plg] -> tcv_rcv (phy, p, len, &ses, &ap)) !=
    1ad0:	f10d 090c 	add.w	r9, sp, #12
    1ad4:	f108 0708 	add.w	r7, r8, #8
		if (plugins [plg] == NULL)
    1ad8:	683b      	ldr	r3, [r7, #0]
    1ada:	46ba      	mov	sl, r7
    1adc:	3f04      	subs	r7, #4
    1ade:	b92b      	cbnz	r3, 1aec <tcvphy_rcv+0x40>
	for (plg = TCV_MAX_PLUGS-1; plg >= 0; plg--) {
    1ae0:	45d0      	cmp	r8, sl
    1ae2:	d1f9      	bne.n	1ad8 <tcvphy_rcv+0x2c>
	if (dsp == TCV_DSP_PASS || dsp == TCV_DSP_DROP) {
		/*
		 * Either no one is claiming the packet or the claimant says
		 * we should drop it.
		 */
		return 0;
    1ae4:	2000      	movs	r0, #0
		return 0;

	memcpy ((char*)c, ((char*)p) + ap.head, len);

	return 1;
}
    1ae6:	b005      	add	sp, #20
    1ae8:	e8bd 8ff0 	ldmia.w	sp!, {r4, r5, r6, r7, r8, r9, sl, fp, pc}
		sysassert (plugins [plg] -> tcv_rcv != NULL, "tcv31");
    1aec:	f8d3 b008 	ldr.w	fp, [r3, #8]
    1af0:	f1bb 0f00 	cmp.w	fp, #0
    1af4:	d101      	bne.n	1afa <tcvphy_rcv+0x4e>
    1af6:	4914      	ldr	r1, [pc, #80]	; (1b48 <tcvphy_rcv+0x9c>)
    1af8:	e7e5      	b.n	1ac6 <tcvphy_rcv+0x1a>
		if ((dsp = plugins [plg] -> tcv_rcv (phy, p, len, &ses, &ap)) !=
    1afa:	4631      	mov	r1, r6
    1afc:	4622      	mov	r2, r4
    1afe:	4628      	mov	r0, r5
    1b00:	f8cd 9000 	str.w	r9, [sp]
    1b04:	ab02      	add	r3, sp, #8
    1b06:	47d8      	blx	fp
    1b08:	4601      	mov	r1, r0
    1b0a:	2800      	cmp	r0, #0
    1b0c:	d0e8      	beq.n	1ae0 <tcvphy_rcv+0x34>
	if (dsp == TCV_DSP_PASS || dsp == TCV_DSP_DROP) {
    1b0e:	2801      	cmp	r0, #1
    1b10:	d0e8      	beq.n	1ae4 <tcvphy_rcv+0x38>
	len -= (ap.head + ap.tail);
    1b12:	f8bd 200c 	ldrh.w	r2, [sp, #12]
    1b16:	f8bd 300e 	ldrh.w	r3, [sp, #14]
    1b1a:	441a      	add	r2, r3
    1b1c:	1aa4      	subs	r4, r4, r2
	if ((c = tcvp_new (len, dsp, ses)) == NULL)
    1b1e:	4620      	mov	r0, r4
    1b20:	9a02      	ldr	r2, [sp, #8]
    1b22:	f7ff ff67 	bl	19f4 <tcvp_new>
    1b26:	2800      	cmp	r0, #0
    1b28:	d0dc      	beq.n	1ae4 <tcvphy_rcv+0x38>
	memcpy ((char*)c, ((char*)p) + ap.head, len);
    1b2a:	f8bd 100c 	ldrh.w	r1, [sp, #12]
    1b2e:	4622      	mov	r2, r4
    1b30:	4431      	add	r1, r6
    1b32:	f7ff fb36 	bl	11a2 <__pi_memcpy>
	return 1;
    1b36:	2001      	movs	r0, #1
    1b38:	e7d5      	b.n	1ae6 <tcvphy_rcv+0x3a>
    1b3a:	bf00      	nop
    1b3c:	200001a4 	andcs	r0, r0, r4, lsr #3
    1b40:	0000440b 	andeq	r4, r0, fp, lsl #8
    1b44:	200001bc 			; <UNDEFINED> instruction: 0x200001bc
    1b48:	00004411 	andeq	r4, r0, r1, lsl r4

00001b4c <tcvphy_get>:
 * Returns the packet pointer and its length.
 */
	qhead_t	*oq;
	hblock_t *b;

	verify_fph (phy, "tcv32");
    1b4c:	2803      	cmp	r0, #3
__PUBLF (PicOSNode, address, tcvphy_get) (int phy, int *len) {
    1b4e:	b508      	push	{r3, lr}
	verify_fph (phy, "tcv32");
    1b50:	d803      	bhi.n	1b5a <tcvphy_get+0xe>
    1b52:	4b0b      	ldr	r3, [pc, #44]	; (1b80 <tcvphy_get+0x34>)
    1b54:	f853 3020 	ldr.w	r3, [r3, r0, lsl #2]
    1b58:	b91b      	cbnz	r3, 1b62 <tcvphy_get+0x16>
    1b5a:	200a      	movs	r0, #10
    1b5c:	4909      	ldr	r1, [pc, #36]	; (1b84 <tcvphy_get+0x38>)
    1b5e:	f7fe fc95 	bl	48c <__pi_syserror>

	oq = oqueues [phy];
    1b62:	4b09      	ldr	r3, [pc, #36]	; (1b88 <tcvphy_get+0x3c>)
    1b64:	f853 3020 	ldr.w	r3, [r3, r0, lsl #2]
	b = q_first (oq);
    1b68:	6818      	ldr	r0, [r3, #0]
	if (q_end (b, oq)) {
    1b6a:	4283      	cmp	r3, r0
    1b6c:	d005      	beq.n	1b7a <tcvphy_get+0x2e>
		/* The queue is empty */
		return NULL;
	}

	*len = b->length;
    1b6e:	8903      	ldrh	r3, [r0, #8]
    1b70:	600b      	str	r3, [r1, #0]
	deq (b);	// Dequeue the packet ...
    1b72:	f7ff fd56 	bl	1622 <deq>
	deqtm (b);	// ... and clear its timer
	return (address) (b + 1);
    1b76:	300c      	adds	r0, #12
}
    1b78:	bd08      	pop	{r3, pc}
		return NULL;
    1b7a:	2000      	movs	r0, #0
    1b7c:	e7fc      	b.n	1b78 <tcvphy_get+0x2c>
    1b7e:	bf00      	nop
    1b80:	200001a4 	andcs	r0, r0, r4, lsr #3
    1b84:	00004417 	andeq	r4, r0, r7, lsl r4
    1b88:	20000198 	mulcs	r0, r8, r1

00001b8c <tcvphy_top>:
 * Returns the pointer to the first outgoing packet.
 */
	qhead_t *oq;
	hblock_t *b;

	verify_fph (phy, "tcv33");
    1b8c:	2803      	cmp	r0, #3
__PUBLF (PicOSNode, address, tcvphy_top) (int phy) {
    1b8e:	b508      	push	{r3, lr}
	verify_fph (phy, "tcv33");
    1b90:	d803      	bhi.n	1b9a <tcvphy_top+0xe>
    1b92:	4b08      	ldr	r3, [pc, #32]	; (1bb4 <tcvphy_top+0x28>)
    1b94:	f853 3020 	ldr.w	r3, [r3, r0, lsl #2]
    1b98:	b91b      	cbnz	r3, 1ba2 <tcvphy_top+0x16>
    1b9a:	200a      	movs	r0, #10
    1b9c:	4906      	ldr	r1, [pc, #24]	; (1bb8 <tcvphy_top+0x2c>)
    1b9e:	f7fe fc75 	bl	48c <__pi_syserror>

	oq = oqueues [phy];
    1ba2:	4b06      	ldr	r3, [pc, #24]	; (1bbc <tcvphy_top+0x30>)
    1ba4:	f853 3020 	ldr.w	r3, [r3, r0, lsl #2]
	b = q_first (oq);
    1ba8:	6818      	ldr	r0, [r3, #0]
	if (q_end (b, oq))
    1baa:	4283      	cmp	r3, r0
		return NULL;
    1bac:	bf0c      	ite	eq
    1bae:	2000      	moveq	r0, #0

	return (address)(b + 1);
    1bb0:	300c      	addne	r0, #12
}
    1bb2:	bd08      	pop	{r3, pc}
    1bb4:	200001a4 	andcs	r0, r0, r4, lsr #3
    1bb8:	0000441d 	andeq	r4, r0, sp, lsl r4
    1bbc:	20000198 	mulcs	r0, r8, r1

00001bc0 <tcvphy_end>:

__PUBLF (PicOSNode, void, tcvphy_end) (address pkt) {
    1bc0:	b510      	push	{r4, lr}
/*
 * Marks the end of packet transmission
 */
	hblock_t *b = header (pkt);

	verify_plg (b, tcv_xmt, "tcv34");
    1bc2:	f810 3c01 	ldrb.w	r3, [r0, #-1]
	hblock_t *b = header (pkt);
    1bc6:	f1a0 040c 	sub.w	r4, r0, #12
	verify_plg (b, tcv_xmt, "tcv34");
    1bca:	f3c3 0382 	ubfx	r3, r3, #2, #3
    1bce:	2b02      	cmp	r3, #2
    1bd0:	d805      	bhi.n	1bde <tcvphy_end+0x1e>
    1bd2:	4a08      	ldr	r2, [pc, #32]	; (1bf4 <tcvphy_end+0x34>)
    1bd4:	f852 3023 	ldr.w	r3, [r2, r3, lsl #2]
    1bd8:	b10b      	cbz	r3, 1bde <tcvphy_end+0x1e>
    1bda:	695b      	ldr	r3, [r3, #20]
    1bdc:	b91b      	cbnz	r3, 1be6 <tcvphy_end+0x26>
    1bde:	200a      	movs	r0, #10
    1be0:	4905      	ldr	r1, [pc, #20]	; (1bf8 <tcvphy_end+0x38>)
    1be2:	f7fe fc53 	bl	48c <__pi_syserror>
	dispose (b, plugins [b->attributes.b.plugin] ->
    1be6:	4798      	blx	r3
    1be8:	4601      	mov	r1, r0
    1bea:	4620      	mov	r0, r4
		tcv_xmt (pkt));
}
    1bec:	e8bd 4010 	ldmia.w	sp!, {r4, lr}
	dispose (b, plugins [b->attributes.b.plugin] ->
    1bf0:	f7ff bd2c 	b.w	164c <dispose>
    1bf4:	200001bc 			; <UNDEFINED> instruction: 0x200001bc
    1bf8:	00004423 	andeq	r4, r0, r3, lsr #8

00001bfc <tcv_init>:
	tcv_tservice = create TCVTimerService;
	tcv_tservice -> _pp_apid_ ();
#endif	/* __SMURPH__ */

#endif	/* TCV_TIMERS */
}
    1bfc:	4770      	bx	lr

00001bfe <NmiSR>:
NmiSRHandler(void)
{
    //
    // Enter an infinite loop.
    //
    while(1)
    1bfe:	e7fe      	b.n	1bfe <NmiSR>

00001c00 <FaultISR>:
FaultISRHandler(void)
{
    //
    // Enter an infinite loop.
    //
    while(1)
    1c00:	e7fe      	b.n	1c00 <FaultISR>

00001c02 <AONIntHandler>:
IntDefaultHandler(void)
{
    //
    // Go into an infinite loop.
    //
    while(1)
    1c02:	e7fe      	b.n	1c02 <AONIntHandler>

00001c04 <ResetISR>:
{
    1c04:	b508      	push	{r3, lr}
    SetupTrimDevice();
    1c06:	f001 fce9 	bl	35dc <NOROM_SetupTrimDevice>
        *pui32Dest++ = *pui32Src++;
    1c0a:	4b0d      	ldr	r3, [pc, #52]	; (1c40 <zero_loop+0x14>)
    1c0c:	480d      	ldr	r0, [pc, #52]	; (1c44 <zero_loop+0x18>)
    1c0e:	1cda      	adds	r2, r3, #3
    1c10:	1a12      	subs	r2, r2, r0
    1c12:	1ec1      	subs	r1, r0, #3
    1c14:	f022 0203 	bic.w	r2, r2, #3
    1c18:	4299      	cmp	r1, r3
    1c1a:	bf88      	it	hi
    1c1c:	2200      	movhi	r2, #0
    1c1e:	490a      	ldr	r1, [pc, #40]	; (1c48 <zero_loop+0x1c>)
    1c20:	f002 f9e6 	bl	3ff0 <memcpy>
    __asm("    ldr     r0, =_bss\n"
    1c24:	4809      	ldr	r0, [pc, #36]	; (1c4c <zero_loop+0x20>)
    1c26:	490a      	ldr	r1, [pc, #40]	; (1c50 <zero_loop+0x24>)
    1c28:	f04f 0200 	mov.w	r2, #0

00001c2c <zero_loop>:
    1c2c:	4288      	cmp	r0, r1
    1c2e:	bfb8      	it	lt
    1c30:	f840 2b04 	strlt.w	r2, [r0], #4
    1c34:	dbfa      	blt.n	1c2c <zero_loop>
   main();
    1c36:	f7ff f905 	bl	e44 <main>
    FaultISR();
    1c3a:	f7ff ffe1 	bl	1c00 <FaultISR>
}
    1c3e:	bd08      	pop	{r3, pc}
    1c40:	20000108 	andcs	r0, r0, r8, lsl #2
    1c44:	20000000 	andcs	r0, r0, r0
    1c48:	00004f2d 	andeq	r4, r0, sp, lsr #30
    1c4c:	20000108 	andcs	r0, r0, r8, lsl #2
    1c50:	2000023c 	andcs	r0, r0, ip, lsr r2

00001c54 <get_byte>:

static word	left;

// ============================================================================

static byte get_byte () {
    1c54:	2308      	movs	r3, #8

	int i;
	byte b;

	for (b = 0, i = 0; i < 8; i++) {
    1c56:	2000      	movs	r0, #0
    HWREG( GPIO_BASE + GPIO_O_DOUTSET31_0 ) = ( 1 << dioNumber );
    1c58:	f44f 6180 	mov.w	r1, #1024	; 0x400
static byte get_byte () {
    1c5c:	b510      	push	{r4, lr}
    return (( HWREG( GPIO_BASE + GPIO_O_DIN31_0 ) >> dioNumber ) & 1 );
    1c5e:	4a08      	ldr	r2, [pc, #32]	; (1c80 <get_byte+0x2c>)
    1c60:	f8d2 40c0 	ldr.w	r4, [r2, #192]	; 0xc0
		b <<= 1;
    1c64:	0040      	lsls	r0, r0, #1
		if (ee_inp)
    1c66:	05e4      	lsls	r4, r4, #23
		b <<= 1;
    1c68:	b2c0      	uxtb	r0, r0
			b |= 1;
    1c6a:	bf48      	it	mi
    1c6c:	f040 0001 	orrmi.w	r0, r0, #1
	for (b = 0, i = 0; i < 8; i++) {
    1c70:	3b01      	subs	r3, #1
    HWREG( GPIO_BASE + GPIO_O_DOUTSET31_0 ) = ( 1 << dioNumber );
    1c72:	f8c2 1090 	str.w	r1, [r2, #144]	; 0x90
    HWREG( GPIO_BASE + GPIO_O_DOUTCLR31_0 ) = ( 1 << dioNumber );
    1c76:	f8c2 10a0 	str.w	r1, [r2, #160]	; 0xa0
    1c7a:	d1f1      	bne.n	1c60 <get_byte+0xc>
		ee_clkh;
		ee_clkl;
	}

	return b;
}
    1c7c:	bd10      	pop	{r4, pc}
    1c7e:	bf00      	nop
    1c80:	40022000 	andmi	r2, r2, r0

00001c84 <put_byte>:

static void put_byte (byte b) {
    1c84:	b510      	push	{r4, lr}
    1c86:	2208      	movs	r2, #8
    1c88:	f44f 7400 	mov.w	r4, #512	; 0x200
    HWREG( GPIO_BASE + GPIO_O_DOUTSET31_0 ) = ( 1 << dioNumber );
    1c8c:	f44f 6180 	mov.w	r1, #1024	; 0x400
    1c90:	4b08      	ldr	r3, [pc, #32]	; (1cb4 <put_byte+0x30>)

	int i;

	for (i = 0; i < 8; i++) {
		if (b & 0x80)
    1c92:	f010 0f80 	tst.w	r0, #128	; 0x80
    1c96:	bf14      	ite	ne
    1c98:	f8c3 4090 	strne.w	r4, [r3, #144]	; 0x90
    HWREG( GPIO_BASE + GPIO_O_DOUTCLR31_0 ) = ( 1 << dioNumber );
    1c9c:	f8c3 40a0 	streq.w	r4, [r3, #160]	; 0xa0
			ee_outh;
		else
			ee_outl;
		ee_clkh;
		ee_clkl;
		b <<= 1;
    1ca0:	0040      	lsls	r0, r0, #1
	for (i = 0; i < 8; i++) {
    1ca2:	3a01      	subs	r2, #1
    HWREG( GPIO_BASE + GPIO_O_DOUTSET31_0 ) = ( 1 << dioNumber );
    1ca4:	f8c3 1090 	str.w	r1, [r3, #144]	; 0x90
		b <<= 1;
    1ca8:	b2c0      	uxtb	r0, r0
    HWREG( GPIO_BASE + GPIO_O_DOUTCLR31_0 ) = ( 1 << dioNumber );
    1caa:	f8c3 10a0 	str.w	r1, [r3, #160]	; 0xa0
	for (i = 0; i < 8; i++) {
    1cae:	d1f0      	bne.n	1c92 <put_byte+0xe>
	}
}
    1cb0:	bd10      	pop	{r4, pc}
    1cb2:	bf00      	nop
    1cb4:	40022000 	andmi	r2, r2, r0

00001cb8 <cmd_0>:
    HWREGBITW( GPIO_BASE + GPIO_O_DOE31_0, dioNumber ) = outputEnableValue;
    1cb8:	2301      	movs	r3, #1

// ============================================================================

static void cmd_0 (byte cmd) {
    1cba:	b510      	push	{r4, lr}
    1cbc:	4c04      	ldr	r4, [pc, #16]	; (1cd0 <cmd_0+0x18>)
    1cbe:	f8c4 3a50 	str.w	r3, [r4, #2640]	; 0xa50

	ee_start;
	put_byte (cmd);
    1cc2:	f7ff ffdf 	bl	1c84 <put_byte>
    1cc6:	2300      	movs	r3, #0
    1cc8:	f8c4 3a50 	str.w	r3, [r4, #2640]	; 0xa50
	ee_stop;
}
    1ccc:	bd10      	pop	{r4, pc}
    1cce:	bf00      	nop
    1cd0:	42441000 	submi	r1, r4, #0

00001cd4 <wwait>:
	r = get_byte ();
	ee_stop;
	return r;
}

static void wwait (word st, word del) {
    1cd4:	e92d 41f0 	stmdb	sp!, {r4, r5, r6, r7, r8, lr}
    1cd8:	4604      	mov	r4, r0
    1cda:	460d      	mov	r5, r1
    1cdc:	2701      	movs	r7, #1
//
// Wait for write to complete
//
	while (dopen && (rdsr () & 1)) {
    1cde:	f8df 8044 	ldr.w	r8, [pc, #68]	; 1d24 <wwait+0x50>
    1ce2:	4e11      	ldr	r6, [pc, #68]	; (1d28 <wwait+0x54>)
    1ce4:	f898 3000 	ldrb.w	r3, [r8]
    1ce8:	b15b      	cbz	r3, 1d02 <wwait+0x2e>
	put_byte (CMD_RDSR);
    1cea:	2005      	movs	r0, #5
    1cec:	f8c6 7a50 	str.w	r7, [r6, #2640]	; 0xa50
    1cf0:	f7ff ffc8 	bl	1c84 <put_byte>
	r = get_byte ();
    1cf4:	f7ff ffae 	bl	1c54 <get_byte>
    1cf8:	2300      	movs	r3, #0
    1cfa:	f8c6 3a50 	str.w	r3, [r6, #2640]	; 0xa50
	while (dopen && (rdsr () & 1)) {
    1cfe:	07c3      	lsls	r3, r0, #31
    1d00:	d401      	bmi.n	1d06 <wwait+0x32>
		else {
			delay (del, st);
			release;
		}
	}
}
    1d02:	e8bd 81f0 	ldmia.w	sp!, {r4, r5, r6, r7, r8, pc}
		if (st == WNONE)
    1d06:	f64f 73ff 	movw	r3, #65535	; 0xffff
    1d0a:	429c      	cmp	r4, r3
    1d0c:	d103      	bne.n	1d16 <wwait+0x42>
			mdelay (1);
    1d0e:	2001      	movs	r0, #1
    1d10:	f7fe fb64 	bl	3dc <mdelay>
    1d14:	e7e6      	b.n	1ce4 <wwait+0x10>
			delay (del, st);
    1d16:	4621      	mov	r1, r4
    1d18:	4628      	mov	r0, r5
    1d1a:	f7ff fa05 	bl	1128 <delay>
			release;
    1d1e:	f7fe ff5d 	bl	bdc <__pi_release>
    1d22:	bf00      	nop
    1d24:	200001c8 	andcs	r0, r0, r8, asr #3
    1d28:	42441000 	submi	r1, r4, #0

00001d2c <ready>:
		dopen = 0;
		ee_bring_down;
	}
}

static void ready () {
    1d2c:	b5f8      	push	{r3, r4, r5, r6, r7, lr}
//
// Called before a new operation to make sure the chip is ready
//
	if (dopen) {
    1d2e:	4d0d      	ldr	r5, [pc, #52]	; (1d64 <ready+0x38>)
    1d30:	782f      	ldrb	r7, [r5, #0]
    1d32:	b147      	cbz	r7, 1d46 <ready+0x1a>
		// The device is open
		wwait (WNONE, 1);
    1d34:	2101      	movs	r1, #1
    1d36:	f64f 70ff 	movw	r0, #65535	; 0xffff
    1d3a:	f7ff ffcb 	bl	1cd4 <wwait>
	} else {
		copen ();
		dopen = DOPEN_TEMP;
	}

	dstat = 0;
    1d3e:	2200      	movs	r2, #0
    1d40:	4b09      	ldr	r3, [pc, #36]	; (1d68 <ready+0x3c>)
    1d42:	701a      	strb	r2, [r3, #0]
}
    1d44:	bdf8      	pop	{r3, r4, r5, r6, r7, pc}
    1d46:	2401      	movs	r4, #1
    1d48:	4e08      	ldr	r6, [pc, #32]	; (1d6c <ready+0x40>)
	udelay (1);
    1d4a:	4620      	mov	r0, r4
    1d4c:	f8c6 4a50 	str.w	r4, [r6, #2640]	; 0xa50
    1d50:	f7fe fb2e 	bl	3b0 <udelay>
	udelay (1);
    1d54:	4620      	mov	r0, r4
    1d56:	f8c6 7a50 	str.w	r7, [r6, #2640]	; 0xa50
    1d5a:	f7fe fb29 	bl	3b0 <udelay>
		dopen = DOPEN_TEMP;
    1d5e:	2302      	movs	r3, #2
    1d60:	702b      	strb	r3, [r5, #0]
    1d62:	e7ec      	b.n	1d3e <ready+0x12>
    1d64:	200001c8 	andcs	r0, r0, r8, asr #3
    1d68:	200001c9 	andcs	r0, r0, r9, asr #3
    1d6c:	42441000 	submi	r1, r4, #0

00001d70 <cclose>:
static void cclose () {
    1d70:	b510      	push	{r4, lr}
	if (dopen == DOPEN_TEMP) {
    1d72:	4c07      	ldr	r4, [pc, #28]	; (1d90 <cclose+0x20>)
    1d74:	7823      	ldrb	r3, [r4, #0]
    1d76:	2b02      	cmp	r3, #2
    1d78:	d109      	bne.n	1d8e <cclose+0x1e>
		wwait (WNONE, 1);
    1d7a:	2101      	movs	r1, #1
    1d7c:	f64f 70ff 	movw	r0, #65535	; 0xffff
    1d80:	f7ff ffa8 	bl	1cd4 <wwait>
	cmd_0 (CMD_DP);
    1d84:	20b9      	movs	r0, #185	; 0xb9
    1d86:	f7ff ff97 	bl	1cb8 <cmd_0>
		dopen = 0;
    1d8a:	2300      	movs	r3, #0
    1d8c:	7023      	strb	r3, [r4, #0]
}
    1d8e:	bd10      	pop	{r4, pc}
    1d90:	200001c8 	andcs	r0, r0, r8, asr #3

00001d94 <ee_open>:

// ============================================================================

word ee_open () {
    1d94:	b508      	push	{r3, lr}
//
// Open (for more than one operation)
//
	ready ();
    1d96:	f7ff ffc9 	bl	1d2c <ready>
	dopen = DOPEN_PERM;
    1d9a:	2201      	movs	r2, #1
    1d9c:	4b01      	ldr	r3, [pc, #4]	; (1da4 <ee_open+0x10>)
		ee_stop;
		diag ("ID: %x %x %x", r [0], r [1], r [2]);
	}
#endif
	return 0;
}
    1d9e:	2000      	movs	r0, #0
	dopen = DOPEN_PERM;
    1da0:	701a      	strb	r2, [r3, #0]
}
    1da2:	bd08      	pop	{r3, pc}
    1da4:	200001c8 	andcs	r0, r0, r8, asr #3

00001da8 <ee_close>:

void ee_close () {

	if (dopen) {
    1da8:	4b03      	ldr	r3, [pc, #12]	; (1db8 <ee_close+0x10>)
    1daa:	781a      	ldrb	r2, [r3, #0]
    1dac:	b11a      	cbz	r2, 1db6 <ee_close+0xe>
		dopen = DOPEN_TEMP;
    1dae:	2202      	movs	r2, #2
    1db0:	701a      	strb	r2, [r3, #0]
		cclose ();
    1db2:	f7ff bfdd 	b.w	1d70 <cclose>
	}
}
    1db6:	4770      	bx	lr
    1db8:	200001c8 	andcs	r0, r0, r8, asr #3

00001dbc <ser_outf>:

//+++ "__outserial.c"

procname (__outserial);

int ser_outf (word st, const char *m, ...) {
    1dbc:	b40e      	push	{r1, r2, r3}
    1dbe:	b577      	push	{r0, r1, r2, r4, r5, r6, lr}
    1dc0:	4604      	mov	r4, r0

	int prcs;
	char *buf;
	va_list ap;

	if ((prcs = running (__outserial)) != 0) {
    1dc2:	4812      	ldr	r0, [pc, #72]	; (1e0c <ser_outf+0x50>)
    1dc4:	f7ff f9cc 	bl	1160 <running>
    1dc8:	4606      	mov	r6, r0
    1dca:	b120      	cbz	r0, 1dd6 <ser_outf+0x1a>
		/* We have to wait */
		join (prcs, st);
    1dcc:	4621      	mov	r1, r4
    1dce:	f7ff f999 	bl	1104 <__pi_join>
	if ((buf = vform (NULL, m, ap)) == NULL) {
		/*
		 * This means that we are out of memory
		 */
		umwait (st);
		release;
    1dd2:	f7fe ff03 	bl	bdc <__pi_release>
	va_start (ap, m);
    1dd6:	aa08      	add	r2, sp, #32
	if ((buf = vform (NULL, m, ap)) == NULL) {
    1dd8:	9907      	ldr	r1, [sp, #28]
	va_start (ap, m);
    1dda:	9201      	str	r2, [sp, #4]
	if ((buf = vform (NULL, m, ap)) == NULL) {
    1ddc:	f000 fe66 	bl	2aac <vform>
    1de0:	4605      	mov	r5, r0
    1de2:	b918      	cbnz	r0, 1dec <ser_outf+0x30>
		umwait (st);
    1de4:	4620      	mov	r0, r4
    1de6:	f7ff fb2b 	bl	1440 <__pi_waitmem>
    1dea:	e7f2      	b.n	1dd2 <ser_outf+0x16>
	}

	if (runstrand (__outserial, buf) == 0) {
    1dec:	4601      	mov	r1, r0
    1dee:	4807      	ldr	r0, [pc, #28]	; (1e0c <ser_outf+0x50>)
    1df0:	f7ff fb0c 	bl	140c <__pi_fork>
    1df4:	b918      	cbnz	r0, 1dfe <ser_outf+0x42>
		ufree (buf);
    1df6:	4628      	mov	r0, r5
    1df8:	f7ff fa68 	bl	12cc <__pi_free>
		npwait (st);
    1dfc:	e7f2      	b.n	1de4 <ser_outf+0x28>
		release;
	}

	return 0;
}
    1dfe:	4630      	mov	r0, r6
    1e00:	b003      	add	sp, #12
    1e02:	e8bd 4070 	ldmia.w	sp!, {r4, r5, r6, lr}
    1e06:	b003      	add	sp, #12
    1e08:	4770      	bx	lr
    1e0a:	bf00      	nop
    1e0c:	00002e91 	muleq	r0, r1, lr

00001e10 <ser_inf>:

extern char *__inpline;

procname (__inserial);

int ser_inf (word st, const char *fmt, ...) {
    1e10:	b40e      	push	{r1, r2, r3}
    1e12:	b533      	push	{r0, r1, r4, r5, lr}
    1e14:	9905      	ldr	r1, [sp, #20]
    1e16:	4604      	mov	r4, r0
/* ========= */

	int prcs;
	va_list	ap;

	if (fmt == NULL)
    1e18:	b321      	cbz	r1, 1e64 <ser_inf+0x54>
		return 0;

	if (__inpline == NULL) {
    1e1a:	4d13      	ldr	r5, [pc, #76]	; (1e68 <ser_inf+0x58>)
    1e1c:	6828      	ldr	r0, [r5, #0]
    1e1e:	b988      	cbnz	r0, 1e44 <ser_inf+0x34>
		if ((prcs = running (__inserial)) == 0) {
    1e20:	4812      	ldr	r0, [pc, #72]	; (1e6c <ser_inf+0x5c>)
    1e22:	f7ff f99d 	bl	1160 <running>
    1e26:	b948      	cbnz	r0, 1e3c <ser_inf+0x2c>
			prcs = runthread (__inserial);
    1e28:	4601      	mov	r1, r0
    1e2a:	4810      	ldr	r0, [pc, #64]	; (1e6c <ser_inf+0x5c>)
    1e2c:	f7ff faee 	bl	140c <__pi_fork>
			if (prcs == 0) {
    1e30:	b920      	cbnz	r0, 1e3c <ser_inf+0x2c>
				npwait (st);
    1e32:	4620      	mov	r0, r4
    1e34:	f7ff fb04 	bl	1440 <__pi_waitmem>
				release;
			}
		}
		join (prcs, st);
		release;
    1e38:	f7fe fed0 	bl	bdc <__pi_release>
		join (prcs, st);
    1e3c:	4621      	mov	r1, r4
    1e3e:	f7ff f961 	bl	1104 <__pi_join>
    1e42:	e7f9      	b.n	1e38 <ser_inf+0x28>
	}

	/* Input available */
	va_start (ap, fmt);
    1e44:	aa06      	add	r2, sp, #24
    1e46:	9201      	str	r2, [sp, #4]

	prcs = vscan (__inpline, fmt, ap);
    1e48:	f000 fe58 	bl	2afc <vscan>
    1e4c:	4604      	mov	r4, r0

	ufree (__inpline);
    1e4e:	6828      	ldr	r0, [r5, #0]
    1e50:	f7ff fa3c 	bl	12cc <__pi_free>
	__inpline = NULL;
    1e54:	2300      	movs	r3, #0
    1e56:	602b      	str	r3, [r5, #0]

	return prcs;
}
    1e58:	4620      	mov	r0, r4
    1e5a:	b002      	add	sp, #8
    1e5c:	e8bd 4030 	ldmia.w	sp!, {r4, r5, lr}
    1e60:	b003      	add	sp, #12
    1e62:	4770      	bx	lr
		return 0;
    1e64:	460c      	mov	r4, r1
    1e66:	e7f7      	b.n	1e58 <ser_inf+0x48>
    1e68:	20000214 	andcs	r0, r0, r4, lsl r2
    1e6c:	00002f01 	andeq	r2, r0, r1, lsl #30

00001e70 <ser_in>:

extern char *__inpline;

procname (__inserial);

int ser_in (word st, char *buf, int len) {
    1e70:	b5f8      	push	{r3, r4, r5, r6, r7, lr}
    1e72:	4604      	mov	r4, r0
    1e74:	460e      	mov	r6, r1
/* ======= */
/* Direct */
/* ====== */
	int prcs;

	if (len == 0)
    1e76:	4615      	mov	r5, r2
    1e78:	b37a      	cbz	r2, 1eda <ser_in+0x6a>
		// Just in case
		return 0;

	if (__inpline == NULL) {
    1e7a:	4f19      	ldr	r7, [pc, #100]	; (1ee0 <ser_in+0x70>)
    1e7c:	6838      	ldr	r0, [r7, #0]
    1e7e:	b988      	cbnz	r0, 1ea4 <ser_in+0x34>
		if ((prcs = running (__inserial)) == 0) {
    1e80:	4818      	ldr	r0, [pc, #96]	; (1ee4 <ser_in+0x74>)
    1e82:	f7ff f96d 	bl	1160 <running>
    1e86:	b948      	cbnz	r0, 1e9c <ser_in+0x2c>
			prcs = runthread (__inserial);
    1e88:	4601      	mov	r1, r0
    1e8a:	4816      	ldr	r0, [pc, #88]	; (1ee4 <ser_in+0x74>)
    1e8c:	f7ff fabe 	bl	140c <__pi_fork>
			if (prcs == 0) {
    1e90:	b920      	cbnz	r0, 1e9c <ser_in+0x2c>
				npwait (st);
    1e92:	4620      	mov	r0, r4
    1e94:	f7ff fad4 	bl	1440 <__pi_waitmem>
				release;
			}
		}
		join (prcs, st);
		release;
    1e98:	f7fe fea0 	bl	bdc <__pi_release>
		join (prcs, st);
    1e9c:	4621      	mov	r1, r4
    1e9e:	f7ff f931 	bl	1104 <__pi_join>
    1ea2:	e7f9      	b.n	1e98 <ser_in+0x28>
	}

	/* Input available */
	if (*__inpline == NULL) // bin cmd
    1ea4:	7803      	ldrb	r3, [r0, #0]
    1ea6:	b9a3      	cbnz	r3, 1ed2 <ser_in+0x62>
		prcs = __inpline[1] + 3; // 0x00, len, 0x04
    1ea8:	7844      	ldrb	r4, [r0, #1]
    1eaa:	3403      	adds	r4, #3
	else
		prcs = strlen (__inpline);

	if (prcs >= len)
    1eac:	42ac      	cmp	r4, r5
		prcs = len-1;
    1eae:	bfa8      	it	ge
    1eb0:	f105 34ff 	addge.w	r4, r5, #4294967295	; 0xffffffff

	memcpy (buf, __inpline, prcs);
    1eb4:	4622      	mov	r2, r4
    1eb6:	4630      	mov	r0, r6
    1eb8:	6839      	ldr	r1, [r7, #0]
    1eba:	f7ff f972 	bl	11a2 <__pi_memcpy>
	ufree (__inpline);
    1ebe:	6838      	ldr	r0, [r7, #0]
    1ec0:	f7ff fa04 	bl	12cc <__pi_free>
	__inpline = NULL;
    1ec4:	2300      	movs	r3, #0
    1ec6:	603b      	str	r3, [r7, #0]
	if (*buf) // if it's NULL, it's a bin cmd
    1ec8:	7832      	ldrb	r2, [r6, #0]
    1eca:	b102      	cbz	r2, 1ece <ser_in+0x5e>
		buf [prcs] = '\0';
    1ecc:	5533      	strb	r3, [r6, r4]
	return prcs;
}
    1ece:	4620      	mov	r0, r4
    1ed0:	bdf8      	pop	{r3, r4, r5, r6, r7, pc}
		prcs = strlen (__inpline);
    1ed2:	f7ff f957 	bl	1184 <__pi_strlen>
    1ed6:	4604      	mov	r4, r0
    1ed8:	e7e8      	b.n	1eac <ser_in+0x3c>
		return 0;
    1eda:	4614      	mov	r4, r2
    1edc:	e7f7      	b.n	1ece <ser_in+0x5e>
    1ede:	bf00      	nop
    1ee0:	20000214 	andcs	r0, r0, r4, lsl r2
    1ee4:	00002f01 	andeq	r2, r0, r1, lsl #30

00001ee8 <plugch>:
//
// Insert the channel number as the right frequency in the proper place
//
	RF_cmdFs.frequency = 
		// Channel number is just the megahertz increment
		RF_cmdPropRadioDivSetup.centerFreq = CC1350_BASEFREQ + channel;
    1ee8:	4b04      	ldr	r3, [pc, #16]	; (1efc <plugch+0x14>)
    1eea:	4a05      	ldr	r2, [pc, #20]	; (1f00 <plugch+0x18>)
    1eec:	781b      	ldrb	r3, [r3, #0]
    1eee:	f503 7359 	add.w	r3, r3, #868	; 0x364
    1ef2:	8413      	strh	r3, [r2, #32]
	RF_cmdFs.frequency = 
    1ef4:	4a03      	ldr	r2, [pc, #12]	; (1f04 <plugch+0x1c>)
    1ef6:	81d3      	strh	r3, [r2, #14]
}
    1ef8:	4770      	bx	lr
    1efa:	bf00      	nop
    1efc:	200001cc 	andcs	r0, r0, ip, asr #3
    1f00:	20000050 	andcs	r0, r0, r0, asr r0
    1f04:	20000038 	andcs	r0, r0, r8, lsr r0

00001f08 <option>:

	// Make rbuffl exactly equal to max payload length
	rbuffl -= 2;
}

static int option (int opt, address val) {
    1f08:	b570      	push	{r4, r5, r6, lr}
    1f0a:	460c      	mov	r4, r1

	int ret = 0;

	switch (opt) {
    1f0c:	281a      	cmp	r0, #26
    1f0e:	f200 80a4 	bhi.w	205a <option+0x152>
    1f12:	e8df f000 	tbb	[pc, r0]
    1f16:	3939390e 	ldmdbcc	r9!, {r1, r2, r3, r8, fp, ip, sp}
    1f1a:	674f3014 	smlaldvs	r3, pc, r4, r0	; <UNPREDICTABLE>
    1f1e:	3b35445b 	blcc	d53092 <__ccfg+0xd330ea>
    1f22:	a2a2a2a2 	adcge	sl, r2, #536870922	; 0x2000000a
    1f26:	777aa2a2 	ldrbvc	sl, [sl, -r2, lsr #5]!
    1f2a:	898ba2a2 	stmibhi	fp, {r1, r5, r7, r9, sp, pc}
    1f2e:	009aa241 	addseq	sl, sl, r1, asr #4

		case PHYSOPT_STATUS:

			ret = 2 | ((dstate & DSTATE_RXON) != 0);
    1f32:	4b4c      	ldr	r3, [pc, #304]	; (2064 <option+0x15c>)
    1f34:	7818      	ldrb	r0, [r3, #0]
    1f36:	f000 0001 	and.w	r0, r0, #1
			ret = (int) statid;
			goto RVal;

		case PHYSOPT_GETMAXPL:

			ret = rbuffl + 2;
    1f3a:	3002      	adds	r0, #2
			goto RVal;
    1f3c:	e028      	b.n	1f90 <option+0x88>
			_BIS (dstate, DSTATE_RXON);
    1f3e:	4a49      	ldr	r2, [pc, #292]	; (2064 <option+0x15c>)
    1f40:	7813      	ldrb	r3, [r2, #0]
    1f42:	f043 0301 	orr.w	r3, r3, #1
    1f46:	7013      	strb	r3, [r2, #0]
	int ret = 0;
    1f48:	2000      	movs	r0, #0
			p_trigger (drvprcs, qevent);
    1f4a:	4b47      	ldr	r3, [pc, #284]	; (2068 <option+0x160>)
    1f4c:	6819      	ldr	r1, [r3, #0]
    1f4e:	4b47      	ldr	r3, [pc, #284]	; (206c <option+0x164>)
    1f50:	460c      	mov	r4, r1
    1f52:	681d      	ldr	r5, [r3, #0]
    1f54:	2300      	movs	r3, #0
    1f56:	f834 2b10 	ldrh.w	r2, [r4], #16
    1f5a:	f002 0207 	and.w	r2, r2, #7
    1f5e:	429a      	cmp	r2, r3
    1f60:	dd08      	ble.n	1f74 <option+0x6c>
    1f62:	f854 6033 	ldr.w	r6, [r4, r3, lsl #3]
    1f66:	3301      	adds	r3, #1
    1f68:	42ae      	cmp	r6, r5
    1f6a:	d1f8      	bne.n	1f5e <option+0x56>
    1f6c:	eb01 03c3 	add.w	r3, r1, r3, lsl #3
    1f70:	889b      	ldrh	r3, [r3, #4]
    1f72:	800b      	strh	r3, [r1, #0]
	return ret;
RVal:
	if (val != NULL)
		*val = ret;
	goto RRet;
}
    1f74:	bd70      	pop	{r4, r5, r6, pc}
			_BIC (dstate, DSTATE_RXON);
    1f76:	4a3b      	ldr	r2, [pc, #236]	; (2064 <option+0x15c>)
    1f78:	7813      	ldrb	r3, [r2, #0]
    1f7a:	f023 0301 	bic.w	r3, r3, #1
    1f7e:	e7e2      	b.n	1f46 <option+0x3e>
			statid = (val == NULL) ? 0 : *val;
    1f80:	b101      	cbz	r1, 1f84 <option+0x7c>
    1f82:	880c      	ldrh	r4, [r1, #0]
    1f84:	4b3a      	ldr	r3, [pc, #232]	; (2070 <option+0x168>)
    1f86:	801c      	strh	r4, [r3, #0]
	int ret = 0;
    1f88:	2000      	movs	r0, #0
    1f8a:	e7f3      	b.n	1f74 <option+0x6c>
			ret = (int) statid;
    1f8c:	4b38      	ldr	r3, [pc, #224]	; (2070 <option+0x168>)
    1f8e:	8818      	ldrh	r0, [r3, #0]
	if (val != NULL)
    1f90:	2c00      	cmp	r4, #0
    1f92:	d0ef      	beq.n	1f74 <option+0x6c>
		*val = ret;
    1f94:	8020      	strh	r0, [r4, #0]
	return ret;
    1f96:	e7ed      	b.n	1f74 <option+0x6c>
			ret = rbuffl + 2;
    1f98:	4b36      	ldr	r3, [pc, #216]	; (2074 <option+0x16c>)
    1f9a:	7818      	ldrb	r0, [r3, #0]
    1f9c:	e7cd      	b.n	1f3a <option+0x32>
				memcpy (val, &rxstat,
    1f9e:	220c      	movs	r2, #12
			if (val != NULL) {
    1fa0:	b121      	cbz	r1, 1fac <option+0xa4>
				memcpy (val, &rxstat,
    1fa2:	4620      	mov	r0, r4
    1fa4:	4934      	ldr	r1, [pc, #208]	; (2078 <option+0x170>)
    1fa6:	f7ff f8fc 	bl	11a2 <__pi_memcpy>
    1faa:	e7ed      	b.n	1f88 <option+0x80>
				memset (&rxstat, 0, 
    1fac:	4832      	ldr	r0, [pc, #200]	; (2078 <option+0x170>)
    1fae:	f7ff f902 	bl	11b6 <__pi_memset>
    1fb2:	e7e9      	b.n	1f88 <option+0x80>
			if (val == NULL)
    1fb4:	b941      	cbnz	r1, 1fc8 <option+0xc0>
				gbackoff (RADIO_LBT_BACKOFF_EXP);
    1fb6:	f7ff faf1 	bl	159c <lrnd>
    1fba:	f3c0 4105 	ubfx	r1, r0, #16, #6
    1fbe:	3102      	adds	r1, #2
				utimer_set (bckf_timer, *val);
    1fc0:	482e      	ldr	r0, [pc, #184]	; (207c <option+0x174>)
    1fc2:	f7fe fff7 	bl	fb4 <__pi_utimer_set>
    1fc6:	e7bf      	b.n	1f48 <option+0x40>
    1fc8:	8809      	ldrh	r1, [r1, #0]
    1fca:	e7f9      	b.n	1fc0 <option+0xb8>
			for (ret = 0; ret < 8; ret++)
    1fcc:	2000      	movs	r0, #0
				if (RF_cmdPropRadioDivSetup.txPower
    1fce:	4b2c      	ldr	r3, [pc, #176]	; (2080 <option+0x178>)
    1fd0:	8b5a      	ldrh	r2, [r3, #26]
    1fd2:	4b2c      	ldr	r3, [pc, #176]	; (2084 <option+0x17c>)
					== patable [ret])
    1fd4:	f833 1b02 	ldrh.w	r1, [r3], #2
				if (RF_cmdPropRadioDivSetup.txPower
    1fd8:	428a      	cmp	r2, r1
    1fda:	d0d9      	beq.n	1f90 <option+0x88>
			for (ret = 0; ret < 8; ret++)
    1fdc:	3001      	adds	r0, #1
    1fde:	2808      	cmp	r0, #8
    1fe0:	d1f8      	bne.n	1fd4 <option+0xcc>
    1fe2:	e7d5      	b.n	1f90 <option+0x88>
			ret = (val == NULL) ? RADIO_DEFAULT_POWER :
    1fe4:	b119      	cbz	r1, 1fee <option+0xe6>
				(*val > 7) ? 7 : *val;
    1fe6:	8808      	ldrh	r0, [r1, #0]
			ret = (val == NULL) ? RADIO_DEFAULT_POWER :
    1fe8:	2807      	cmp	r0, #7
    1fea:	bf28      	it	cs
    1fec:	2007      	movcs	r0, #7
			RF_cmdPropRadioDivSetup.txPower = patable [ret];
    1fee:	4b25      	ldr	r3, [pc, #148]	; (2084 <option+0x17c>)
    1ff0:	f833 2010 	ldrh.w	r2, [r3, r0, lsl #1]
    1ff4:	4b22      	ldr	r3, [pc, #136]	; (2080 <option+0x178>)
    1ff6:	835a      	strh	r2, [r3, #26]
			_BIS (dstate, DSTATE_IRST);
    1ff8:	4a1a      	ldr	r2, [pc, #104]	; (2064 <option+0x15c>)
    1ffa:	7813      	ldrb	r3, [r2, #0]
    1ffc:	f063 037f 	orn	r3, r3, #127	; 0x7f
    2000:	7013      	strb	r3, [r2, #0]
			goto OREvnt;
    2002:	e7a2      	b.n	1f4a <option+0x42>
			ret = (int) channel;
    2004:	4b20      	ldr	r3, [pc, #128]	; (2088 <option+0x180>)
			ret = (int) vrate;
    2006:	7818      	ldrb	r0, [r3, #0]
			goto RVal;
    2008:	e7c2      	b.n	1f90 <option+0x88>
			channel = (val == NULL) ? RADIO_DEFAULT_CHANNEL :
    200a:	b121      	cbz	r1, 2016 <option+0x10e>
				(*val > 7) ? 7 : *val;
    200c:	880c      	ldrh	r4, [r1, #0]
    200e:	2c07      	cmp	r4, #7
    2010:	bf28      	it	cs
    2012:	2407      	movcs	r4, #7
			channel = (val == NULL) ? RADIO_DEFAULT_CHANNEL :
    2014:	b2e4      	uxtb	r4, r4
    2016:	4b1c      	ldr	r3, [pc, #112]	; (2088 <option+0x180>)
    2018:	701c      	strb	r4, [r3, #0]
			plugch ();
    201a:	f7ff ff65 	bl	1ee8 <plugch>
			_BIS (dstate, DSTATE_IRST);
    201e:	4a11      	ldr	r2, [pc, #68]	; (2064 <option+0x15c>)
    2020:	7813      	ldrb	r3, [r2, #0]
    2022:	f063 037f 	orn	r3, r3, #127	; 0x7f
    2026:	e78e      	b.n	1f46 <option+0x3e>
			ret = (int) vrate;
    2028:	4b18      	ldr	r3, [pc, #96]	; (208c <option+0x184>)
    202a:	e7ec      	b.n	2006 <option+0xfe>
			vrate = (val == NULL) ? RADIO_BITRATE_INDEX :
    202c:	b139      	cbz	r1, 203e <option+0x136>
				(*val > 3) ? 3 : (*val < 1) ? 1 : *val;
    202e:	880b      	ldrh	r3, [r1, #0]
			vrate = (val == NULL) ? RADIO_BITRATE_INDEX :
    2030:	2b03      	cmp	r3, #3
    2032:	d806      	bhi.n	2042 <option+0x13a>
    2034:	b13b      	cbz	r3, 2046 <option+0x13e>
    2036:	b2db      	uxtb	r3, r3
    2038:	4a14      	ldr	r2, [pc, #80]	; (208c <option+0x184>)
    203a:	7013      	strb	r3, [r2, #0]
    203c:	e7ed      	b.n	201a <option+0x112>
    203e:	2302      	movs	r3, #2
    2040:	e7fa      	b.n	2038 <option+0x130>
    2042:	2303      	movs	r3, #3
    2044:	e7f8      	b.n	2038 <option+0x130>
    2046:	2301      	movs	r3, #1
    2048:	e7f6      	b.n	2038 <option+0x130>
			offdelay = (val == NULL) ? RADIO_DEFAULT_OFFDELAY :
    204a:	b119      	cbz	r1, 2054 <option+0x14c>
    204c:	880b      	ldrh	r3, [r1, #0]
    204e:	4a10      	ldr	r2, [pc, #64]	; (2090 <option+0x188>)
    2050:	8013      	strh	r3, [r2, #0]
			goto RRet;
    2052:	e799      	b.n	1f88 <option+0x80>
			offdelay = (val == NULL) ? RADIO_DEFAULT_OFFDELAY :
    2054:	f44f 7380 	mov.w	r3, #256	; 0x100
    2058:	e7f9      	b.n	204e <option+0x146>
			syserror (EREQPAR, "cc13 op");
    205a:	2003      	movs	r0, #3
    205c:	490d      	ldr	r1, [pc, #52]	; (2094 <option+0x18c>)
    205e:	f7fe fa15 	bl	48c <__pi_syserror>
    2062:	bf00      	nop
    2064:	200001d4 	ldrdcs	r0, [r0], -r4
    2068:	200001d0 	ldrdcs	r0, [r0], -r0	; <UNPREDICTABLE>
    206c:	200001e0 	andcs	r0, r0, r0, ror #3
    2070:	20000204 	andcs	r0, r0, r4, lsl #4
    2074:	200001e4 	andcs	r0, r0, r4, ror #3
    2078:	200001f8 	strdcs	r0, [r0], -r8
    207c:	200001ca 	andcs	r0, r0, sl, asr #3
    2080:	20000050 	andcs	r0, r0, r0, asr r0
    2084:	00004496 	muleq	r0, r6, r4
    2088:	200001cc 	andcs	r0, r0, ip, asr #3
    208c:	20000036 	andcs	r0, r0, r6, lsr r0
    2090:	20000034 	andcs	r0, r0, r4, lsr r0
    2094:	00004432 	andeq	r4, r0, r2, lsr r4

00002098 <issue_cmd>:
static void issue_cmd (lword cmd) {
    2098:	b538      	push	{r3, r4, r5, lr}
    209a:	4604      	mov	r4, r0
    209c:	4d0c      	ldr	r5, [pc, #48]	; (20d0 <issue_cmd+0x38>)
		if ((res = RFCDoorbellSendTo (cmd) & 0xff) == 0x01)
    209e:	4620      	mov	r0, r4
    20a0:	f001 f8a6 	bl	31f0 <NOROM_RFCDoorbellSendTo>
    20a4:	b2c2      	uxtb	r2, r0
    20a6:	2a01      	cmp	r2, #1
    20a8:	d011      	beq.n	20ce <issue_cmd+0x36>
		if (res != 0x86)
    20aa:	2a86      	cmp	r2, #134	; 0x86
    20ac:	d003      	beq.n	20b6 <issue_cmd+0x1e>
			syserror (EHARDWARE, "rt1");
    20ae:	4909      	ldr	r1, [pc, #36]	; (20d4 <issue_cmd+0x3c>)
			syserror (EHARDWARE, "hang ic0");
    20b0:	2008      	movs	r0, #8
    20b2:	f7fe f9eb 	bl	48c <__pi_syserror>
		if (cnt-- == 0) {
    20b6:	3d01      	subs	r5, #1
    20b8:	d105      	bne.n	20c6 <issue_cmd+0x2e>
			diag ("HUP %lx %lx", cmd, res);
    20ba:	4621      	mov	r1, r4
    20bc:	4806      	ldr	r0, [pc, #24]	; (20d8 <issue_cmd+0x40>)
    20be:	f7ff f9cb 	bl	1458 <diag>
			syserror (EHARDWARE, "hang ic0");
    20c2:	4906      	ldr	r1, [pc, #24]	; (20dc <issue_cmd+0x44>)
    20c4:	e7f4      	b.n	20b0 <issue_cmd+0x18>
		udelay (1);
    20c6:	2001      	movs	r0, #1
    20c8:	f7fe f972 	bl	3b0 <udelay>
		if ((res = RFCDoorbellSendTo (cmd) & 0xff) == 0x01)
    20cc:	e7e7      	b.n	209e <issue_cmd+0x6>
}
    20ce:	bd38      	pop	{r3, r4, r5, pc}
    20d0:	00015f91 	muleq	r1, r1, pc	; <UNPREDICTABLE>
    20d4:	0000443a 	andeq	r4, r0, sl, lsr r4
    20d8:	0000443e 	andeq	r4, r0, lr, lsr r4
    20dc:	0000444a 	andeq	r4, r0, sl, asr #8

000020e0 <rx_de>:
static void rx_de () {
    20e0:	b510      	push	{r4, lr}
	if ((dstate & DSTATE_RXAC) == 0)
    20e2:	4c06      	ldr	r4, [pc, #24]	; (20fc <rx_de+0x1c>)
    20e4:	7823      	ldrb	r3, [r4, #0]
    20e6:	079b      	lsls	r3, r3, #30
    20e8:	d506      	bpl.n	20f8 <rx_de+0x18>
	issue_cmd (CMDR_DIR_CMD (CMD_ABORT));
    20ea:	4805      	ldr	r0, [pc, #20]	; (2100 <rx_de+0x20>)
    20ec:	f7ff ffd4 	bl	2098 <issue_cmd>
	_BIC (dstate, DSTATE_RXAC);
    20f0:	7823      	ldrb	r3, [r4, #0]
    20f2:	f023 0302 	bic.w	r3, r3, #2
    20f6:	7023      	strb	r3, [r4, #0]
}
    20f8:	bd10      	pop	{r4, pc}
    20fa:	bf00      	nop
    20fc:	200001d4 	ldrdcs	r0, [r0], -r4
    2100:	04010001 	streq	r0, [r1], #-1

00002104 <rf_off>:
static void rf_off () {
    2104:	b538      	push	{r3, r4, r5, lr}
	if ((dstate & DSTATE_RFON) == 0)
    2106:	4c13      	ldr	r4, [pc, #76]	; (2154 <rf_off+0x50>)
    2108:	7823      	ldrb	r3, [r4, #0]
    210a:	06db      	lsls	r3, r3, #27
    210c:	d521      	bpl.n	2152 <rf_off+0x4e>
	IntDisable (INT_RFC_CPE_0);
    210e:	f04f 5380 	mov.w	r3, #268435456	; 0x10000000
RFCClockDisable(void)
{
    //
    // Disable all clocks
    //
    HWREG(RFC_PWR_NONBUF_BASE + RFC_PWR_O_PWMCLKEN) = 0x0;
    2112:	2500      	movs	r5, #0
    2114:	f8d3 31b0 	ldr.w	r3, [r3, #432]	; 0x1b0
    2118:	2019      	movs	r0, #25
    211a:	695b      	ldr	r3, [r3, #20]
    211c:	4798      	blx	r3
	RFCAdi3VcoLdoVoltageMode (false);
    211e:	2000      	movs	r0, #0
    2120:	f001 f9e4 	bl	34ec <NOROM_RFCAdi3VcoLdoVoltageMode>
	RFCSynthPowerDown ();
    2124:	f001 f878 	bl	3218 <NOROM_RFCSynthPowerDown>
    2128:	4b0b      	ldr	r3, [pc, #44]	; (2158 <rf_off+0x54>)
	__pi_offdomain (PRCM_DOMAIN_RFCORE);
    212a:	2001      	movs	r0, #1
    212c:	601d      	str	r5, [r3, #0]
    212e:	f7fe f98b 	bl	448 <__pi_offdomain>
	HWREGBITW (AON_RTC_BASE + AON_RTC_O_CTL, AON_RTC_CTL_RTC_UPD_EN_BITN) =
    2132:	4b0a      	ldr	r3, [pc, #40]	; (215c <rf_off+0x58>)
    2134:	605d      	str	r5, [r3, #4]
	OSCHF_SwitchToRcOscTurnOffXosc ();
    2136:	f001 f841 	bl	31bc <NOROM_OSCHF_SwitchToRcOscTurnOffXosc>
    HWREG( GPIO_BASE + GPIO_O_DOUTCLR31_0 ) = ( 1 << dioNumber );
    213a:	f04f 4280 	mov.w	r2, #1073741824	; 0x40000000
    213e:	4b08      	ldr	r3, [pc, #32]	; (2160 <rf_off+0x5c>)
    2140:	f8c3 20a0 	str.w	r2, [r3, #160]	; 0xa0
    2144:	2202      	movs	r2, #2
    2146:	f8c3 20a0 	str.w	r2, [r3, #160]	; 0xa0
	_BIC (dstate, DSTATE_RFON);
    214a:	7823      	ldrb	r3, [r4, #0]
    214c:	f023 0310 	bic.w	r3, r3, #16
    2150:	7023      	strb	r3, [r4, #0]
}
    2152:	bd38      	pop	{r3, r4, r5, pc}
    2154:	200001d4 	ldrdcs	r0, [r0], -r4
    2158:	60040000 	andvs	r0, r4, r0
    215c:	43240000 			; <UNDEFINED> instruction: 0x43240000
    2160:	40022000 	andmi	r2, r2, r0

00002164 <wait_cmd.constprop.0>:
static void wait_cmd (rfc_radioOp_t *cmd, lword tstat, lword timeout) {
    2164:	b570      	push	{r4, r5, r6, lr}
    2166:	4604      	mov	r4, r0
    2168:	460d      	mov	r5, r1
    216a:	f242 7611 	movw	r6, #10001	; 0x2711
		if (cmd->status == tstat)
    216e:	8862      	ldrh	r2, [r4, #2]
    2170:	42aa      	cmp	r2, r5
    2172:	d00e      	beq.n	2192 <wait_cmd.constprop.0+0x2e>
		if (timeout-- == 0) {
    2174:	3e01      	subs	r6, #1
    2176:	d108      	bne.n	218a <wait_cmd.constprop.0+0x26>
			diag ("HUP %lx %lx %lx", cmd->commandNo,
    2178:	8821      	ldrh	r1, [r4, #0]
    217a:	4806      	ldr	r0, [pc, #24]	; (2194 <wait_cmd.constprop.0+0x30>)
    217c:	462b      	mov	r3, r5
    217e:	f7ff f96b 	bl	1458 <diag>
			syserror (EHARDWARE, "rt2");
    2182:	2008      	movs	r0, #8
    2184:	4904      	ldr	r1, [pc, #16]	; (2198 <wait_cmd.constprop.0+0x34>)
    2186:	f7fe f981 	bl	48c <__pi_syserror>
		udelay (1);
    218a:	2001      	movs	r0, #1
    218c:	f7fe f910 	bl	3b0 <udelay>
		if (cmd->status == tstat)
    2190:	e7ed      	b.n	216e <wait_cmd.constprop.0+0xa>
}
    2192:	bd70      	pop	{r4, r5, r6, pc}
    2194:	00004453 	andeq	r4, r0, r3, asr r4
    2198:	00004463 	andeq	r4, r0, r3, ror #8

0000219c <rf_on>:
static void rf_on () {
    219c:	e92d 47f0 	stmdb	sp!, {r4, r5, r6, r7, r8, r9, sl, lr}
	if (dstate & DSTATE_RFON)
    21a0:	4c51      	ldr	r4, [pc, #324]	; (22e8 <rf_on+0x14c>)
    21a2:	7823      	ldrb	r3, [r4, #0]
    21a4:	06db      	lsls	r3, r3, #27
    21a6:	f100 809c 	bmi.w	22e2 <rf_on+0x146>
    HWREG( GPIO_BASE + GPIO_O_DOUTSET31_0 ) = ( 1 << dioNumber );
    21aa:	f04f 4280 	mov.w	r2, #1073741824	; 0x40000000
    21ae:	4b4f      	ldr	r3, [pc, #316]	; (22ec <rf_on+0x150>)
    21b0:	f8c3 2090 	str.w	r2, [r3, #144]	; 0x90
    21b4:	2202      	movs	r2, #2
    21b6:	f8c3 2090 	str.w	r2, [r3, #144]	; 0x90
	OSCHF_TurnOnXosc();
    21ba:	f000 ffc3 	bl	3144 <NOROM_OSCHF_TurnOnXosc>
	do { udelay (10); } while (!OSCHF_AttemptToSwitchToXosc ());
    21be:	200a      	movs	r0, #10
    21c0:	f7fe f8f6 	bl	3b0 <udelay>
    21c4:	f000 ffca 	bl	315c <NOROM_OSCHF_AttemptToSwitchToXosc>
    21c8:	2800      	cmp	r0, #0
    21ca:	d0f8      	beq.n	21be <rf_on+0x22>
	HWREGBITW (AON_RTC_BASE + AON_RTC_O_CTL, AON_RTC_CTL_RTC_UPD_EN_BITN) =
    21cc:	2501      	movs	r5, #1
    21ce:	4b48      	ldr	r3, [pc, #288]	; (22f0 <rf_on+0x154>)
	__pi_ondomain (PRCM_DOMAIN_RFCORE);
    21d0:	4628      	mov	r0, r5
	HWREGBITW (AON_RTC_BASE + AON_RTC_O_CTL, AON_RTC_CTL_RTC_UPD_EN_BITN) =
    21d2:	605d      	str	r5, [r3, #4]
	__pi_ondomain (PRCM_DOMAIN_RFCORE);
    21d4:	f7fe f918 	bl	408 <__pi_ondomain>
    HWREG(RFC_PWR_NONBUF_BASE + RFC_PWR_O_PWMCLKEN) =
    21d8:	f240 72ff 	movw	r2, #2047	; 0x7ff
    21dc:	4b45      	ldr	r3, [pc, #276]	; (22f4 <rf_on+0x158>)
	issue_cmd (
    21de:	4846      	ldr	r0, [pc, #280]	; (22f8 <rf_on+0x15c>)
    21e0:	601a      	str	r2, [r3, #0]
    21e2:	f7ff ff59 	bl	2098 <issue_cmd>
PATCH_FUN_SPEC void enterGenfskCpePatch(void)
{
   uint32_t *pPatchVec = (uint32_t *) (_GENFSK_CPERAM_START + _GENFSK_PATCH_VEC_OFFSET);

#if (_NWORD_PATCHIMAGE_GENFSK > 0)
   memcpy(pPatchVec, patchImageGenfsk, sizeof(patchImageGenfsk));
    21e6:	f44f 7223 	mov.w	r2, #652	; 0x28c
    21ea:	4944      	ldr	r1, [pc, #272]	; (22fc <rf_on+0x160>)
    21ec:	4844      	ldr	r0, [pc, #272]	; (2300 <rf_on+0x164>)
    21ee:	f001 feff 	bl	3ff0 <memcpy>
{
   uint8_t *pPatchTab = (uint8_t *) (_GENFSK_CPERAM_START + _GENFSK_PATCH_TAB_OFFSET);
   uint32_t *pIrqPatch = (uint32_t *) (_GENFSK_CPERAM_START + _GENFSK_IRQPATCH_OFFSET);


   pPatchTab[80] = 0;
    21f2:	2200      	movs	r2, #0
    21f4:	4b43      	ldr	r3, [pc, #268]	; (2304 <rf_on+0x168>)
      *pD++ = t4;
      *pD++ = t5;
      *pD++ = t6;
      *pD++ = t7;
      *pD++ = t8;
   } while (--nIterations);
    21f6:	4844      	ldr	r0, [pc, #272]	; (2308 <rf_on+0x16c>)
    21f8:	f883 2090 	strb.w	r2, [r3, #144]	; 0x90
   pPatchTab[57] = 1;
   pPatchTab[53] = 2;
    21fc:	2202      	movs	r2, #2
    21fe:	f883 2075 	strb.w	r2, [r3, #117]	; 0x75
   pPatchTab[55] = 3;
    2202:	2203      	movs	r2, #3
    2204:	f883 2077 	strb.w	r2, [r3, #119]	; 0x77
   pPatchTab[110] = 4;
    2208:	2204      	movs	r2, #4
    220a:	f883 20ae 	strb.w	r2, [r3, #174]	; 0xae
   pPatchTab[107] = 5;
    220e:	2205      	movs	r2, #5
    2210:	f883 20ab 	strb.w	r2, [r3, #171]	; 0xab
   pPatchTab[65] = 6;
    2214:	2206      	movs	r2, #6
   pPatchTab[57] = 1;
    2216:	f883 5079 	strb.w	r5, [r3, #121]	; 0x79
   pPatchTab[65] = 6;
    221a:	f883 2081 	strb.w	r2, [r3, #129]	; 0x81

   pIrqPatch[1] = _IRQ_PATCH_0;
    221e:	f04f 5304 	mov.w	r3, #553648128	; 0x21000000
    2222:	4a3a      	ldr	r2, [pc, #232]	; (230c <rf_on+0x170>)
    2224:	f8c3 23c0 	str.w	r2, [r3, #960]	; 0x3c0
   const uint32_t *pS = patchGenfskRfe;
    2228:	4a39      	ldr	r2, [pc, #228]	; (2310 <rf_on+0x174>)
   volatile unsigned long *pD = &HWREG(RFC_RFERAM_BASE);
    222a:	f503 4340 	add.w	r3, r3, #49152	; 0xc000
      t7 = *pS++;
    222e:	6991      	ldr	r1, [r2, #24]
      t2 = *pS++;
    2230:	e9d2 9800 	ldrd	r9, r8, [r2]
      t4 = *pS++;
    2234:	e9d2 ec02 	ldrd	lr, ip, [r2, #8]
      t6 = *pS++;
    2238:	e9d2 7604 	ldrd	r7, r6, [r2, #16]
      t8 = *pS++;
    223c:	69d5      	ldr	r5, [r2, #28]
      *pD++ = t1;
    223e:	f8c3 9000 	str.w	r9, [r3]
      *pD++ = t2;
    2242:	f8c3 8004 	str.w	r8, [r3, #4]
      *pD++ = t3;
    2246:	f8c3 e008 	str.w	lr, [r3, #8]
      *pD++ = t4;
    224a:	f8c3 c00c 	str.w	ip, [r3, #12]
      *pD++ = t5;
    224e:	611f      	str	r7, [r3, #16]
      *pD++ = t6;
    2250:	615e      	str	r6, [r3, #20]
      *pD++ = t7;
    2252:	6199      	str	r1, [r3, #24]
    2254:	4619      	mov	r1, r3
   } while (--nIterations);
    2256:	4281      	cmp	r1, r0
    2258:	f102 0220 	add.w	r2, r2, #32
      *pD++ = t8;
    225c:	f103 0320 	add.w	r3, r3, #32
    2260:	61cd      	str	r5, [r1, #28]
   } while (--nIterations);
    2262:	d1e4      	bne.n	222e <rf_on+0x92>
   t1 = *pS++;
   t2 = *pS++;
   t3 = *pS++;
   t4 = *pS++;
   t5 = *pS++;
   *pD++ = t1;
    2264:	4b2b      	ldr	r3, [pc, #172]	; (2314 <rf_on+0x178>)
    2266:	4a2c      	ldr	r2, [pc, #176]	; (2318 <rf_on+0x17c>)
        issue_cmd (CMDR_DIR_CMD_2BYTE (RF_CMD0, 0));
    2268:	482c      	ldr	r0, [pc, #176]	; (231c <rf_on+0x180>)
    226a:	f8c3 26a0 	str.w	r2, [r3, #1696]	; 0x6a0
   *pD++ = t2;
    226e:	4a2c      	ldr	r2, [pc, #176]	; (2320 <rf_on+0x184>)
    2270:	f8c3 26a4 	str.w	r2, [r3, #1700]	; 0x6a4
   *pD++ = t3;
    2274:	4a2b      	ldr	r2, [pc, #172]	; (2324 <rf_on+0x188>)
    2276:	f8c3 26a8 	str.w	r2, [r3, #1704]	; 0x6a8
   *pD++ = t4;
    227a:	4a2b      	ldr	r2, [pc, #172]	; (2328 <rf_on+0x18c>)
    227c:	f8c3 26ac 	str.w	r2, [r3, #1708]	; 0x6ac
   *pD++ = t5;
    2280:	4a2a      	ldr	r2, [pc, #168]	; (232c <rf_on+0x190>)
    2282:	f8c3 26b0 	str.w	r2, [r3, #1712]	; 0x6b0
    2286:	f7ff ff07 	bl	2098 <issue_cmd>
	RFCAdi3VcoLdoVoltageMode (true);
    228a:	2001      	movs	r0, #1
    228c:	f001 f92e 	bl	34ec <NOROM_RFCAdi3VcoLdoVoltageMode>
       	RFCRfTrimSet (&rfTrim);
    2290:	4827      	ldr	r0, [pc, #156]	; (2330 <rf_on+0x194>)
    2292:	f001 f91b 	bl	34cc <NOROM_RFCRfTrimSet>
	issue_cmd ((lword)&RF_cmdPropRadioDivSetup);
    2296:	4827      	ldr	r0, [pc, #156]	; (2334 <rf_on+0x198>)
    2298:	f7ff fefe 	bl	2098 <issue_cmd>
	wait_cmd ((rfc_radioOp_t*)&RF_cmdPropRadioDivSetup, PROP_DONE_OK,
    229c:	f44f 5150 	mov.w	r1, #13312	; 0x3400
    22a0:	4824      	ldr	r0, [pc, #144]	; (2334 <rf_on+0x198>)
    22a2:	f7ff ff5f 	bl	2164 <wait_cmd.constprop.0>
	issue_cmd ((lword)&cmd_srt);
    22a6:	4824      	ldr	r0, [pc, #144]	; (2338 <rf_on+0x19c>)
    22a8:	f7ff fef6 	bl	2098 <issue_cmd>
	issue_cmd ((lword)&RF_cmdFs);
    22ac:	4823      	ldr	r0, [pc, #140]	; (233c <rf_on+0x1a0>)
    22ae:	f7ff fef3 	bl	2098 <issue_cmd>
	wait_cmd ((rfc_radioOp_t*)&RF_cmdFs, DONE_OK, 10000);
    22b2:	4822      	ldr	r0, [pc, #136]	; (233c <rf_on+0x1a0>)
    22b4:	f44f 6180 	mov.w	r1, #1024	; 0x400
    22b8:	f7ff ff54 	bl	2164 <wait_cmd.constprop.0>
	HWREG (RFC_DBELL_BASE + RFC_DBELL_O_RFCPEIEN) = 0;
    22bc:	2200      	movs	r2, #0
	_BIC (dstate, DSTATE_IRST);
    22be:	7823      	ldrb	r3, [r4, #0]
	IntEnable (INT_RFC_CPE_0);
    22c0:	2019      	movs	r0, #25
	_BIC (dstate, DSTATE_IRST);
    22c2:	f003 037f 	and.w	r3, r3, #127	; 0x7f
    22c6:	f043 0310 	orr.w	r3, r3, #16
    22ca:	7023      	strb	r3, [r4, #0]
	HWREG (RFC_DBELL_BASE + RFC_DBELL_O_RFCPEIEN) = 0;
    22cc:	4b1c      	ldr	r3, [pc, #112]	; (2340 <rf_on+0x1a4>)
    22ce:	615a      	str	r2, [r3, #20]
	HWREG(RFC_DBELL_BASE+RFC_DBELL_O_RFCPEIFG) = 0;
    22d0:	611a      	str	r2, [r3, #16]
	IntEnable (INT_RFC_CPE_0);
    22d2:	f04f 5380 	mov.w	r3, #268435456	; 0x10000000
}
    22d6:	e8bd 47f0 	ldmia.w	sp!, {r4, r5, r6, r7, r8, r9, sl, lr}
	IntEnable (INT_RFC_CPE_0);
    22da:	f8d3 31b0 	ldr.w	r3, [r3, #432]	; 0x1b0
    22de:	691b      	ldr	r3, [r3, #16]
    22e0:	4718      	bx	r3
}
    22e2:	e8bd 87f0 	ldmia.w	sp!, {r4, r5, r6, r7, r8, r9, sl, pc}
    22e6:	bf00      	nop
    22e8:	200001d4 	ldrdcs	r0, [r0], -r4
    22ec:	40022000 	andmi	r2, r2, r0
    22f0:	43240000 			; <UNDEFINED> instruction: 0x43240000
    22f4:	60040000 	andvs	r0, r4, r0
    22f8:	06070051 			; <UNDEFINED> instruction: 0x06070051
    22fc:	00004b5c 	andeq	r4, r0, ip, asr fp
    2300:	2100041c 	tstcs	r0, ip, lsl r4
    2304:	21000300 	mrscs	r0, LR_irq
    2308:	2100c680 	smlabbcs	r0, r0, r6, ip
    230c:	210005bd 			; <UNDEFINED> instruction: 0x210005bd
    2310:	000044a8 	andeq	r4, r0, r8, lsr #9
    2314:	2100c000 	mrscs	ip, (UNDEF: 0)
    2318:	63533960 	cmpvs	r3, #96, 18	; 0x180000
    231c:	06070001 	streq	r0, [r7], -r1
    2320:	1a101020 	bne	4063a8 <__ccfg+0x3e6400>
    2324:	6e236f13 	mcrvs	15, 1, r6, cr3, cr3, {0}
    2328:	16121611 			; <UNDEFINED> instruction: 0x16121611
    232c:	70006b54 	andvc	r6, r0, r4, asr fp
    2330:	200001e8 	andcs	r0, r0, r8, ror #3
    2334:	20000050 	andcs	r0, r0, r0, asr r0
    2338:	20000020 	andcs	r0, r0, r0, lsr #32
    233c:	20000038 	andcs	r0, r0, r8, lsr r0
    2340:	40041000 	andmi	r1, r4, r0

00002344 <rx_int_enable>:
static void rx_int_enable () {
    2344:	e92d 43f8 	stmdb	sp!, {r3, r4, r5, r6, r7, r8, r9, lr}
RFCCpe0IntEnable(uint32_t ui32Mask)
{
  //
  // Multiplex RF Core interrupts to CPE0 IRQ.
  //
  HWREG(RFC_DBELL_BASE + RFC_DBELL_O_RFCPEISL) &= ~ui32Mask;
    2348:	4b29      	ldr	r3, [pc, #164]	; (23f0 <rx_int_enable+0xac>)
    234a:	699a      	ldr	r2, [r3, #24]
    234c:	f022 4200 	bic.w	r2, r2, #2147483648	; 0x80000000
    2350:	f422 3280 	bic.w	r2, r2, #65536	; 0x10000
    2354:	619a      	str	r2, [r3, #24]
  do
  {
    //
    // Clear any pending interrupts.
    //
    HWREG(RFC_DBELL_BASE + RFC_DBELL_O_RFCPEIFG) = 0x0;
    2356:	2200      	movs	r2, #0
    2358:	611a      	str	r2, [r3, #16]
  }while(HWREG(RFC_DBELL_BASE + RFC_DBELL_O_RFCPEIFG) != 0x0);
    235a:	691d      	ldr	r5, [r3, #16]
    235c:	2d00      	cmp	r5, #0
    235e:	d1fb      	bne.n	2358 <rx_int_enable+0x14>
	for (db = (rfc_dataEntryGeneral_t*) (rbuffs->pCurrEntry), i = nr = 0;
    2360:	2602      	movs	r6, #2

  //
  //  Enable the masked interrupts
  //
  HWREG(RFC_DBELL_BASE + RFC_DBELL_O_RFCPEIEN) |= ui32Mask;
    2362:	695a      	ldr	r2, [r3, #20]
				diag ("BAD RX");
    2364:	4f23      	ldr	r7, [pc, #140]	; (23f4 <rx_int_enable+0xb0>)
    2366:	f042 4200 	orr.w	r2, r2, #2147483648	; 0x80000000
    236a:	f442 3280 	orr.w	r2, r2, #65536	; 0x10000
    236e:	615a      	str	r2, [r3, #20]
	for (db = (rfc_dataEntryGeneral_t*) (rbuffs->pCurrEntry), i = nr = 0;
    2370:	4b21      	ldr	r3, [pc, #132]	; (23f8 <rx_int_enable+0xb4>)
			if (__dp [0] == __dp [1] + 3 && __dp [1] <= rbuffl &&
    2372:	f8df 8088 	ldr.w	r8, [pc, #136]	; 23fc <rx_int_enable+0xb8>
	for (db = (rfc_dataEntryGeneral_t*) (rbuffs->pCurrEntry), i = nr = 0;
    2376:	69db      	ldr	r3, [r3, #28]
				tcvphy_rcv (physid, (address)(__dp + 2), pl);
    2378:	f8df 9084 	ldr.w	r9, [pc, #132]	; 2400 <rx_int_enable+0xbc>
	for (db = (rfc_dataEntryGeneral_t*) (rbuffs->pCurrEntry), i = nr = 0;
    237c:	681c      	ldr	r4, [r3, #0]
		if (db->status == DATA_ENTRY_FINISHED) {
    237e:	7923      	ldrb	r3, [r4, #4]
    2380:	2b03      	cmp	r3, #3
    2382:	d11e      	bne.n	23c2 <rx_int_enable+0x7e>
			if (__dp [0] == __dp [1] + 3 && __dp [1] <= rbuffl &&
    2384:	7a63      	ldrb	r3, [r4, #9]
    2386:	7a21      	ldrb	r1, [r4, #8]
    2388:	1cda      	adds	r2, r3, #3
    238a:	4291      	cmp	r1, r2
			nr++;
    238c:	f105 0501 	add.w	r5, r5, #1
			if (__dp [0] == __dp [1] + 3 && __dp [1] <= rbuffl &&
    2390:	d11c      	bne.n	23cc <rx_int_enable+0x88>
    2392:	f898 2000 	ldrb.w	r2, [r8]
    2396:	429a      	cmp	r2, r3
    2398:	d318      	bcc.n	23cc <rx_int_enable+0x88>
    239a:	f013 0c01 	ands.w	ip, r3, #1
    239e:	d115      	bne.n	23cc <rx_int_enable+0x88>
				__dp [pl + 1] = __dp [pl] - 128;
    23a0:	f104 0108 	add.w	r1, r4, #8
				pl = __dp [1] + 2;
    23a4:	1c9a      	adds	r2, r3, #2
				__dp [pl + 1] = __dp [pl] - 128;
    23a6:	5c88      	ldrb	r0, [r1, r2]
    23a8:	440b      	add	r3, r1
    23aa:	3880      	subs	r0, #128	; 0x80
    23ac:	70d8      	strb	r0, [r3, #3]
				__dp [pl] = 0;
    23ae:	f801 c002 	strb.w	ip, [r1, r2]
				tcvphy_rcv (physid, (address)(__dp + 2), pl);
    23b2:	f8b9 0000 	ldrh.w	r0, [r9]
    23b6:	f104 010a 	add.w	r1, r4, #10
    23ba:	f7ff fb77 	bl	1aac <tcvphy_rcv>
			db->status = DATA_ENTRY_PENDING;
    23be:	2300      	movs	r3, #0
    23c0:	7123      	strb	r3, [r4, #4]
	for (db = (rfc_dataEntryGeneral_t*) (rbuffs->pCurrEntry), i = nr = 0;
    23c2:	2e01      	cmp	r6, #1
    23c4:	d006      	beq.n	23d4 <rx_int_enable+0x90>
	    i < NRBUFFS; i++, db = (rfc_dataEntryGeneral_t*)(db->pNextEntry)) {
    23c6:	2601      	movs	r6, #1
    23c8:	6824      	ldr	r4, [r4, #0]
    23ca:	e7d8      	b.n	237e <rx_int_enable+0x3a>
				diag ("BAD RX");
    23cc:	4638      	mov	r0, r7
    23ce:	f7ff f843 	bl	1458 <diag>
    23d2:	e7f4      	b.n	23be <rx_int_enable+0x7a>
	if (nr) {
    23d4:	b14d      	cbz	r5, 23ea <rx_int_enable+0xa6>
		gbackoff (RADIO_LBT_BACKOFF_RX);
    23d6:	f7ff f8e1 	bl	159c <lrnd>
}
    23da:	e8bd 43f8 	ldmia.w	sp!, {r3, r4, r5, r6, r7, r8, r9, lr}
		gbackoff (RADIO_LBT_BACKOFF_RX);
    23de:	f3c0 4102 	ubfx	r1, r0, #16, #3
    23e2:	3102      	adds	r1, #2
    23e4:	4807      	ldr	r0, [pc, #28]	; (2404 <rx_int_enable+0xc0>)
    23e6:	f7fe bde5 	b.w	fb4 <__pi_utimer_set>
}
    23ea:	e8bd 83f8 	ldmia.w	sp!, {r3, r4, r5, r6, r7, r8, r9, pc}
    23ee:	bf00      	nop
    23f0:	40041000 	andmi	r1, r4, r0
    23f4:	00004467 	andeq	r4, r0, r7, ror #8
    23f8:	20000078 	andcs	r0, r0, r8, ror r0
    23fc:	200001e4 	andcs	r0, r0, r4, ror #3
    2400:	200001dc 	ldrdcs	r0, [r0], -ip
    2404:	200001ca 	andcs	r0, r0, sl, asr #3

00002408 <cc1350_driver>:
thread (cc1350_driver)
    2408:	2801      	cmp	r0, #1
    240a:	b5f8      	push	{r3, r4, r5, r6, r7, lr}
    240c:	f000 8083 	beq.w	2516 <cc1350_driver+0x10e>
    2410:	2802      	cmp	r0, #2
    2412:	f000 80b5 	beq.w	2580 <cc1350_driver+0x178>
    2416:	2800      	cmp	r0, #0
    2418:	f040 80c6 	bne.w	25a8 <cc1350_driver+0x1a0>
		if (dstate & DSTATE_IRST) {
    241c:	4c64      	ldr	r4, [pc, #400]	; (25b0 <cc1350_driver+0x1a8>)
    241e:	f994 3000 	ldrsb.w	r3, [r4]
    2422:	2b00      	cmp	r3, #0
    2424:	da05      	bge.n	2432 <cc1350_driver+0x2a>
			rf_off ();
    2426:	f7ff fe6d 	bl	2104 <rf_off>
			_BIC (dstate,
    242a:	7823      	ldrb	r3, [r4, #0]
    242c:	f003 0369 	and.w	r3, r3, #105	; 0x69
    2430:	7023      	strb	r3, [r4, #0]
		if (dstate & DSTATE_RXAC) {
    2432:	7822      	ldrb	r2, [r4, #0]
    2434:	f002 0301 	and.w	r3, r2, #1
    2438:	0792      	lsls	r2, r2, #30
    243a:	d51d      	bpl.n	2478 <cc1350_driver+0x70>
			if ((dstate & DSTATE_RXON) == 0)
    243c:	b90b      	cbnz	r3, 2442 <cc1350_driver+0x3a>
				rx_de ();
    243e:	f7ff fe4f 	bl	20e0 <rx_de>
		if (paylen == 0) {
    2442:	4d5c      	ldr	r5, [pc, #368]	; (25b4 <cc1350_driver+0x1ac>)
    2444:	4e5c      	ldr	r6, [pc, #368]	; (25b8 <cc1350_driver+0x1b0>)
    2446:	682b      	ldr	r3, [r5, #0]
    2448:	2b00      	cmp	r3, #0
    244a:	d148      	bne.n	24de <cc1350_driver+0xd6>
			if ((RF_cmdPropTx.pPkt = (byte*)tcvphy_get (physid,
    244c:	4b5b      	ldr	r3, [pc, #364]	; (25bc <cc1350_driver+0x1b4>)
    244e:	4629      	mov	r1, r5
    2450:	8818      	ldrh	r0, [r3, #0]
    2452:	f7ff fb7b 	bl	1b4c <tcvphy_get>
    2456:	6170      	str	r0, [r6, #20]
    2458:	b360      	cbz	r0, 24b4 <cc1350_driver+0xac>
				sysassert (paylen <= rbuffl && paylen > 0 &&
    245a:	4a59      	ldr	r2, [pc, #356]	; (25c0 <cc1350_driver+0x1b8>)
				paylen -= 2;
    245c:	682b      	ldr	r3, [r5, #0]
				sysassert (paylen <= rbuffl && paylen > 0 &&
    245e:	7812      	ldrb	r2, [r2, #0]
				paylen -= 2;
    2460:	3b02      	subs	r3, #2
				sysassert (paylen <= rbuffl && paylen > 0 &&
    2462:	4293      	cmp	r3, r2
				paylen -= 2;
    2464:	602b      	str	r3, [r5, #0]
				sysassert (paylen <= rbuffl && paylen > 0 &&
    2466:	dc03      	bgt.n	2470 <cc1350_driver+0x68>
    2468:	2b00      	cmp	r3, #0
    246a:	dd01      	ble.n	2470 <cc1350_driver+0x68>
    246c:	07df      	lsls	r7, r3, #31
    246e:	d518      	bpl.n	24a2 <cc1350_driver+0x9a>
    2470:	200a      	movs	r0, #10
    2472:	4954      	ldr	r1, [pc, #336]	; (25c4 <cc1350_driver+0x1bc>)
    2474:	f7fe f80a 	bl	48c <__pi_syserror>
		} else if (dstate & DSTATE_RXON) {
    2478:	2b00      	cmp	r3, #0
    247a:	d0e2      	beq.n	2442 <cc1350_driver+0x3a>
			rf_on ();
    247c:	f7ff fe8e 	bl	219c <rf_on>
	if (dstate & DSTATE_RXAC)
    2480:	7823      	ldrb	r3, [r4, #0]
    2482:	f013 0302 	ands.w	r3, r3, #2
    2486:	d1dc      	bne.n	2442 <cc1350_driver+0x3a>
	for (re = (rfc_dataEntryGeneral_t*) (rbuffs->pCurrEntry), i = 0;
    2488:	484f      	ldr	r0, [pc, #316]	; (25c8 <cc1350_driver+0x1c0>)
    248a:	69c2      	ldr	r2, [r0, #28]
    248c:	6812      	ldr	r2, [r2, #0]
		re->status = DATA_ENTRY_PENDING;
    248e:	7113      	strb	r3, [r2, #4]
	    i < NRBUFFS; i++, re = (rfc_dataEntryGeneral_t*)(re->pNextEntry))
    2490:	6812      	ldr	r2, [r2, #0]
		re->status = DATA_ENTRY_PENDING;
    2492:	7113      	strb	r3, [r2, #4]
	issue_cmd ((lword)&RF_cmdPropRx);
    2494:	f7ff fe00 	bl	2098 <issue_cmd>
	_BIS (dstate, DSTATE_RXAC);
    2498:	7823      	ldrb	r3, [r4, #0]
    249a:	f043 0302 	orr.w	r3, r3, #2
    249e:	7023      	strb	r3, [r4, #0]
    24a0:	e7cf      	b.n	2442 <cc1350_driver+0x3a>
				if (statid != 0xffff)
    24a2:	f64f 72ff 	movw	r2, #65535	; 0xffff
    24a6:	4b49      	ldr	r3, [pc, #292]	; (25cc <cc1350_driver+0x1c4>)
    24a8:	881b      	ldrh	r3, [r3, #0]
    24aa:	4293      	cmp	r3, r2
					((address)(RF_cmdPropTx.pPkt)) [0] =
    24ac:	bf18      	it	ne
    24ae:	8003      	strhne	r3, [r0, #0]
				RF_cmdPropTx.pktLen = (byte) paylen;
    24b0:	682b      	ldr	r3, [r5, #0]
    24b2:	73f3      	strb	r3, [r6, #15]
		if (paylen == 0) {
    24b4:	6829      	ldr	r1, [r5, #0]
    24b6:	b991      	cbnz	r1, 24de <cc1350_driver+0xd6>
			wait (qevent, DR_LOOP);
    24b8:	4b45      	ldr	r3, [pc, #276]	; (25d0 <cc1350_driver+0x1c8>)
    24ba:	6818      	ldr	r0, [r3, #0]
    24bc:	f7fe fdee 	bl	109c <__pi_wait>
			if (dstate & DSTATE_RXAC) {
    24c0:	7823      	ldrb	r3, [r4, #0]
    24c2:	079c      	lsls	r4, r3, #30
    24c4:	d503      	bpl.n	24ce <cc1350_driver+0xc6>
				rx_int_enable ();
    24c6:	f7ff ff3d 	bl	2344 <rx_int_enable>
			release;
    24ca:	f7fe fb87 	bl	bdc <__pi_release>
			} else if (dstate & DSTATE_RFON) {
    24ce:	06d8      	lsls	r0, r3, #27
    24d0:	d5fb      	bpl.n	24ca <cc1350_driver+0xc2>
				delay (offdelay, DR_GOOF);
    24d2:	2102      	movs	r1, #2
    24d4:	4b3f      	ldr	r3, [pc, #252]	; (25d4 <cc1350_driver+0x1cc>)
    24d6:	8818      	ldrh	r0, [r3, #0]
    24d8:	f7fe fe26 	bl	1128 <delay>
    24dc:	e7f5      	b.n	24ca <cc1350_driver+0xc2>
		if (bckf_timer) {
    24de:	4f3e      	ldr	r7, [pc, #248]	; (25d8 <cc1350_driver+0x1d0>)
    24e0:	883d      	ldrh	r5, [r7, #0]
    24e2:	b165      	cbz	r5, 24fe <cc1350_driver+0xf6>
			wait (qevent, DR_LOOP);
    24e4:	4b3a      	ldr	r3, [pc, #232]	; (25d0 <cc1350_driver+0x1c8>)
    24e6:	2100      	movs	r1, #0
    24e8:	6818      	ldr	r0, [r3, #0]
    24ea:	f7fe fdd7 	bl	109c <__pi_wait>
			delay (bckf_timer, DR_LOOP);
    24ee:	2100      	movs	r1, #0
    24f0:	8838      	ldrh	r0, [r7, #0]
    24f2:	f7fe fe19 	bl	1128 <delay>
			if (dstate & DSTATE_RXAC)
    24f6:	7823      	ldrb	r3, [r4, #0]
    24f8:	0799      	lsls	r1, r3, #30
    24fa:	d5e6      	bpl.n	24ca <cc1350_driver+0xc2>
    24fc:	e7e3      	b.n	24c6 <cc1350_driver+0xbe>
		rf_on ();
    24fe:	f7ff fe4d 	bl	219c <rf_on>
		rx_de ();
    2502:	f7ff fded 	bl	20e0 <rx_de>
		HWREG (RFC_DBELL_BASE + RFC_DBELL_O_RFCPEIFG) = 
    2506:	f06f 0202 	mvn.w	r2, #2
    250a:	4b34      	ldr	r3, [pc, #208]	; (25dc <cc1350_driver+0x1d4>)
		RF_cmdPropTx . status = 0;
    250c:	8075      	strh	r5, [r6, #2]
		issue_cmd ((lword)&cmd_cs);
    250e:	4834      	ldr	r0, [pc, #208]	; (25e0 <cc1350_driver+0x1d8>)
		HWREG (RFC_DBELL_BASE + RFC_DBELL_O_RFCPEIFG) = 
    2510:	611a      	str	r2, [r3, #16]
		issue_cmd ((lword)&cmd_cs);
    2512:	f7ff fdc1 	bl	2098 <issue_cmd>
		if (dstate & DSTATE_IRST)
    2516:	4b26      	ldr	r3, [pc, #152]	; (25b0 <cc1350_driver+0x1a8>)
    2518:	f993 3000 	ldrsb.w	r3, [r3]
    251c:	2b00      	cmp	r3, #0
    251e:	f6ff af7d 	blt.w	241c <cc1350_driver+0x14>
		if ((HWREG (RFC_DBELL_BASE + RFC_DBELL_O_RFCPEIFG) &
    2522:	4b2e      	ldr	r3, [pc, #184]	; (25dc <cc1350_driver+0x1d4>)
    2524:	691a      	ldr	r2, [r3, #16]
    2526:	0792      	lsls	r2, r2, #30
    2528:	d402      	bmi.n	2530 <cc1350_driver+0x128>
			delay (1, DR_XMIT);
    252a:	2101      	movs	r1, #1
    252c:	4608      	mov	r0, r1
    252e:	e7d3      	b.n	24d8 <cc1350_driver+0xd0>
		if (RF_cmdPropTx.status != PROP_DONE_OK) {
    2530:	4821      	ldr	r0, [pc, #132]	; (25b8 <cc1350_driver+0x1b0>)
    2532:	4c2c      	ldr	r4, [pc, #176]	; (25e4 <cc1350_driver+0x1dc>)
    2534:	8842      	ldrh	r2, [r0, #2]
    2536:	f5b2 5f50 	cmp.w	r2, #13312	; 0x3400
    253a:	d018      	beq.n	256e <cc1350_driver+0x166>
			if (txtries >= RADIO_LBT_MAX_TRIES) {
    253c:	7822      	ldrb	r2, [r4, #0]
    253e:	2a0f      	cmp	r2, #15
    2540:	d909      	bls.n	2556 <cc1350_driver+0x14e>
				RF_cmdPropTx . status = 0;
    2542:	2200      	movs	r2, #0
    2544:	8042      	strh	r2, [r0, #2]
				HWREG (RFC_DBELL_BASE + RFC_DBELL_O_RFCPEIFG) = 
    2546:	f06f 0202 	mvn.w	r2, #2
    254a:	611a      	str	r2, [r3, #16]
				issue_cmd ((lword)&RF_cmdPropTx);
    254c:	f7ff fda4 	bl	2098 <issue_cmd>
				proceed (DR_XMIT);
    2550:	2001      	movs	r0, #1
    2552:	f7fe fd99 	bl	1088 <proceed>
			txtries++;
    2556:	7823      	ldrb	r3, [r4, #0]
    2558:	3301      	adds	r3, #1
    255a:	7023      	strb	r3, [r4, #0]
			gbackoff (RADIO_LBT_BACKOFF_EXP);
    255c:	f7ff f81e 	bl	159c <lrnd>
    2560:	f3c0 4105 	ubfx	r1, r0, #16, #6
    2564:	3102      	adds	r1, #2
		utimer_set (bckf_timer, RADIO_LBT_XMIT_SPACE);
    2566:	481c      	ldr	r0, [pc, #112]	; (25d8 <cc1350_driver+0x1d0>)
    2568:	f7fe fd24 	bl	fb4 <__pi_utimer_set>
		goto DR_LOOP__;
    256c:	e756      	b.n	241c <cc1350_driver+0x14>
		tcvphy_end ((address)(RF_cmdPropTx.pPkt));
    256e:	6940      	ldr	r0, [r0, #20]
    2570:	f7ff fb26 	bl	1bc0 <tcvphy_end>
		paylen = 0;
    2574:	2300      	movs	r3, #0
    2576:	4a0f      	ldr	r2, [pc, #60]	; (25b4 <cc1350_driver+0x1ac>)
		utimer_set (bckf_timer, RADIO_LBT_XMIT_SPACE);
    2578:	2102      	movs	r1, #2
		paylen = 0;
    257a:	6013      	str	r3, [r2, #0]
		txtries = 0;
    257c:	7023      	strb	r3, [r4, #0]
		utimer_set (bckf_timer, RADIO_LBT_XMIT_SPACE);
    257e:	e7f2      	b.n	2566 <cc1350_driver+0x15e>
		if (!(dstate & DSTATE_IRST) && (dstate & DSTATE_RXON) == 0 &&
    2580:	4b0b      	ldr	r3, [pc, #44]	; (25b0 <cc1350_driver+0x1a8>)
    2582:	781a      	ldrb	r2, [r3, #0]
    2584:	f993 3000 	ldrsb.w	r3, [r3]
    2588:	2b00      	cmp	r3, #0
    258a:	f6ff af47 	blt.w	241c <cc1350_driver+0x14>
    258e:	07d3      	lsls	r3, r2, #31
    2590:	f53f af44 	bmi.w	241c <cc1350_driver+0x14>
		    tcvphy_top (physid) == NULL)
    2594:	4b09      	ldr	r3, [pc, #36]	; (25bc <cc1350_driver+0x1b4>)
    2596:	8818      	ldrh	r0, [r3, #0]
    2598:	f7ff faf8 	bl	1b8c <tcvphy_top>
		if (!(dstate & DSTATE_IRST) && (dstate & DSTATE_RXON) == 0 &&
    259c:	2800      	cmp	r0, #0
    259e:	f47f af3d 	bne.w	241c <cc1350_driver+0x14>
			rf_off ();
    25a2:	f7ff fdaf 	bl	2104 <rf_off>
    25a6:	e739      	b.n	241c <cc1350_driver+0x14>
endthread
    25a8:	e8bd 40f8 	ldmia.w	sp!, {r3, r4, r5, r6, r7, lr}
    25ac:	f7fe bce4 	b.w	f78 <__pi_badstate>
    25b0:	200001d4 	ldrdcs	r0, [r0], -r4
    25b4:	200001d8 	ldrdcs	r0, [r0], -r8
    25b8:	2000009c 	mulcs	r0, ip, r0
    25bc:	200001dc 	ldrdcs	r0, [r0], -ip
    25c0:	200001e4 	andcs	r0, r0, r4, ror #3
    25c4:	0000446e 	andeq	r4, r0, lr, ror #8
    25c8:	20000078 	andcs	r0, r0, r8, ror r0
    25cc:	20000204 	andcs	r0, r0, r4, lsl #4
    25d0:	200001e0 	andcs	r0, r0, r0, ror #3
    25d4:	20000034 	andcs	r0, r0, r4, lsr r0
    25d8:	200001ca 	andcs	r0, r0, sl, asr #3
    25dc:	40041000 	andmi	r1, r4, r0
    25e0:	20000004 	andcs	r0, r0, r4
    25e4:	20000206 	andcs	r0, r0, r6, lsl #4

000025e8 <RFCCPE0IntHandler>:
void RFCCPE0IntHandler (void) {
    25e8:	b530      	push	{r4, r5, lr}
	if (HWREG (RFC_DBELL_BASE + RFC_DBELL_O_RFCPEIFG) &
    25ea:	4a15      	ldr	r2, [pc, #84]	; (2640 <RFCCPE0IntHandler+0x58>)
    25ec:	6913      	ldr	r3, [r2, #16]
    25ee:	2b00      	cmp	r3, #0
		_BIS (dstate, DSTATE_IRST);
    25f0:	bfbf      	itttt	lt
    25f2:	4914      	ldrlt	r1, [pc, #80]	; (2644 <RFCCPE0IntHandler+0x5c>)
    25f4:	780b      	ldrblt	r3, [r1, #0]
    25f6:	f063 037f 	ornlt	r3, r3, #127	; 0x7f
    25fa:	700b      	strblt	r3, [r1, #0]
  do
  {
    //
    // Clear interrupts that may now be pending
    //
    HWREG(RFC_DBELL_BASE+RFC_DBELL_O_RFCPEIFG) = ~ui32Mask;
    25fc:	2100      	movs	r1, #0
    25fe:	6111      	str	r1, [r2, #16]
  }while (HWREG(RFC_DBELL_BASE+RFC_DBELL_O_RFCPEIFG) & ui32Mask);
    2600:	6913      	ldr	r3, [r2, #16]
    2602:	2b00      	cmp	r3, #0
    2604:	d1fb      	bne.n	25fe <RFCCPE0IntHandler+0x16>
  HWREG( RFC_DBELL_BASE + RFC_DBELL_O_RFCPEIEN ) &= ~ui32Mask;
    2606:	6951      	ldr	r1, [r2, #20]
    2608:	6153      	str	r3, [r2, #20]
	p_trigger (drvprcs, qevent);
    260a:	4a0f      	ldr	r2, [pc, #60]	; (2648 <RFCCPE0IntHandler+0x60>)
    260c:	4c0f      	ldr	r4, [pc, #60]	; (264c <RFCCPE0IntHandler+0x64>)
    260e:	6811      	ldr	r1, [r2, #0]
    2610:	6824      	ldr	r4, [r4, #0]
    2612:	4608      	mov	r0, r1
    2614:	f830 2b10 	ldrh.w	r2, [r0], #16
    2618:	f002 0207 	and.w	r2, r2, #7
    261c:	429a      	cmp	r2, r3
    261e:	dd08      	ble.n	2632 <RFCCPE0IntHandler+0x4a>
    2620:	f850 5033 	ldr.w	r5, [r0, r3, lsl #3]
    2624:	3301      	adds	r3, #1
    2626:	42a5      	cmp	r5, r4
    2628:	d1f8      	bne.n	261c <RFCCPE0IntHandler+0x34>
    262a:	eb01 03c3 	add.w	r3, r1, r3, lsl #3
    262e:	889b      	ldrh	r3, [r3, #4]
    2630:	800b      	strh	r3, [r1, #0]
	RISE_N_SHINE;
    2632:	4a07      	ldr	r2, [pc, #28]	; (2650 <RFCCPE0IntHandler+0x68>)
    2634:	7813      	ldrb	r3, [r2, #0]
    2636:	f043 0302 	orr.w	r3, r3, #2
    263a:	7013      	strb	r3, [r2, #0]
}
    263c:	bd30      	pop	{r4, r5, pc}
    263e:	bf00      	nop
    2640:	40041000 	andmi	r1, r4, r0
    2644:	200001d4 	ldrdcs	r0, [r0], -r4
    2648:	200001d0 	ldrdcs	r0, [r0], -r0	; <UNPREDICTABLE>
    264c:	200001e0 	andcs	r0, r0, r0, ror #3
    2650:	20000148 	andcs	r0, r0, r8, asr #2

00002654 <phys_cc1350>:

// ============================================================================

void phys_cc1350 (int phy, int mbs) {
    2654:	e92d 4ff8 	stmdb	sp!, {r3, r4, r5, r6, r7, r8, r9, sl, fp, lr}
// packet length is (and I have reasons not to trust the manual), so let me
// assume it is 255 - 4 - 1 = 250. We shall be careful.
//

#if (RADIO_OPTIONS & RADIO_OPTION_NOCHECKS) == 0
	if (rbuffl != 0)
    2658:	4c49      	ldr	r4, [pc, #292]	; (2780 <phys_cc1350+0x12c>)
void phys_cc1350 (int phy, int mbs) {
    265a:	4606      	mov	r6, r0
	if (rbuffl != 0)
    265c:	7822      	ldrb	r2, [r4, #0]
    265e:	b11a      	cbz	r2, 2668 <phys_cc1350+0x14>
		/* We are allowed to do it only once */
		syserror (ETOOMANY, "cc13");
    2660:	2009      	movs	r0, #9
    2662:	4948      	ldr	r1, [pc, #288]	; (2784 <phys_cc1350+0x130>)
		mbs = CC1350_MAXPLEN;

#if (RADIO_OPTIONS & RADIO_OPTION_NOCHECKS) == 0
	if (mbs < 6 || mbs > CC1350_MAXPLEN)
		/* We are allowed to do it only once */
		syserror (EREQPAR, "cc13 mb");
    2664:	f7fd ff12 	bl	48c <__pi_syserror>
	if (mbs == 0)
    2668:	b129      	cbz	r1, 2676 <phys_cc1350+0x22>
	if (mbs < 6 || mbs > CC1350_MAXPLEN)
    266a:	1f8a      	subs	r2, r1, #6
    266c:	2af4      	cmp	r2, #244	; 0xf4
    266e:	d903      	bls.n	2678 <phys_cc1350+0x24>
		syserror (EREQPAR, "cc13 mb");
    2670:	2003      	movs	r0, #3
    2672:	4945      	ldr	r1, [pc, #276]	; (2788 <phys_cc1350+0x134>)
    2674:	e7f6      	b.n	2664 <phys_cc1350+0x10>
		mbs = CC1350_MAXPLEN;
    2676:	21fa      	movs	r1, #250	; 0xfa
	i = 0;
    2678:	2700      	movs	r7, #0
#endif

	rbuffl = (byte) mbs;
    267a:	f04f 0802 	mov.w	r8, #2
		db->status = DATA_ENTRY_PENDING;
    267e:	46ba      	mov	sl, r7
		db->config.type = 0;	// General (data in structure)
    2680:	f04f 0904 	mov.w	r9, #4
	rbuffl = (byte) mbs;
    2684:	7021      	strb	r1, [r4, #0]
			umalloc (sizeof (rfc_dataEntryGeneral_t) - 1 + rbuffl +
    2686:	7820      	ldrb	r0, [r4, #0]
    2688:	469b      	mov	fp, r3
    268a:	300d      	adds	r0, #13
    268c:	f7fe fe6a 	bl	1364 <__pi_malloc>
		if (db == NULL)
    2690:	4603      	mov	r3, r0
    2692:	b920      	cbnz	r0, 269e <phys_cc1350+0x4a>
			syserror (EMALLOC, "cc13");
    2694:	2006      	movs	r0, #6
    2696:	493b      	ldr	r1, [pc, #236]	; (2784 <phys_cc1350+0x130>)
    2698:	e7e4      	b.n	2664 <phys_cc1350+0x10>
    269a:	46b8      	mov	r8, r7
    269c:	e7f3      	b.n	2686 <phys_cc1350+0x32>
		db->status = DATA_ENTRY_PENDING;
    269e:	f880 a004 	strb.w	sl, [r0, #4]
		if (i)
    26a2:	2f00      	cmp	r7, #0
    26a4:	d03e      	beq.n	2724 <phys_cc1350+0xd0>
			da->pNextEntry = (byte*) db;
    26a6:	f8cb 0000 	str.w	r0, [fp]
		if (++i == NRBUFFS)
    26aa:	2701      	movs	r7, #1
		db->length = rbuffl + 2;
    26ac:	7822      	ldrb	r2, [r4, #0]
		if (++i == NRBUFFS)
    26ae:	45b8      	cmp	r8, r7
		db->length = rbuffl + 2;
    26b0:	f102 0202 	add.w	r2, r2, #2
		db->config.type = 0;	// General (data in structure)
    26b4:	f883 9005 	strb.w	r9, [r3, #5]
		db->length = rbuffl + 2;
    26b8:	80da      	strh	r2, [r3, #6]
		if (++i == NRBUFFS)
    26ba:	d1ee      	bne.n	269a <phys_cc1350+0x46>
	db->pNextEntry = (byte*) re;
    26bc:	601d      	str	r5, [r3, #0]
	rbuffs = (dataQueue_t*) umalloc (sizeof (dataQueue_t));
    26be:	2008      	movs	r0, #8
    26c0:	f7fe fe50 	bl	1364 <__pi_malloc>
    26c4:	4b31      	ldr	r3, [pc, #196]	; (278c <phys_cc1350+0x138>)
    26c6:	61d8      	str	r0, [r3, #28]
	if (rbuffs == NULL)
    26c8:	2800      	cmp	r0, #0
    26ca:	d0e3      	beq.n	2694 <phys_cc1350+0x40>
	rbuffs->pCurrEntry = (byte*) re;
    26cc:	6005      	str	r5, [r0, #0]
	rbuffs->pLastEntry = NULL;
    26ce:	2500      	movs	r5, #0
    26d0:	69da      	ldr	r2, [r3, #28]
	init_rbuffs ();

	physid = phy;

	// Register the phy
	qevent = tcvphy_reg (phy, option, INFO_PHYS_CC1350);
    26d2:	492f      	ldr	r1, [pc, #188]	; (2790 <phys_cc1350+0x13c>)
	rbuffs->pLastEntry = NULL;
    26d4:	6055      	str	r5, [r2, #4]
	RF_cmdPropRx . pOutput = (byte*) &rxstat;
    26d6:	4a2f      	ldr	r2, [pc, #188]	; (2794 <phys_cc1350+0x140>)
	qevent = tcvphy_reg (phy, option, INFO_PHYS_CC1350);
    26d8:	4630      	mov	r0, r6
	RF_cmdPropRx . pOutput = (byte*) &rxstat;
    26da:	621a      	str	r2, [r3, #32]
	RF_cmdPropRx . pktConf . bRepeatOk = 1;
    26dc:	89da      	ldrh	r2, [r3, #14]
    26de:	f442 520c 	orr.w	r2, r2, #8960	; 0x2300
    26e2:	f042 0206 	orr.w	r2, r2, #6
    26e6:	81da      	strh	r2, [r3, #14]
	rbuffl -= 2;
    26e8:	7823      	ldrb	r3, [r4, #0]
	qevent = tcvphy_reg (phy, option, INFO_PHYS_CC1350);
    26ea:	f44f 6210 	mov.w	r2, #2304	; 0x900
	rbuffl -= 2;
    26ee:	3b02      	subs	r3, #2
    26f0:	7023      	strb	r3, [r4, #0]
	physid = phy;
    26f2:	4b29      	ldr	r3, [pc, #164]	; (2798 <phys_cc1350+0x144>)
    26f4:	801e      	strh	r6, [r3, #0]
	qevent = tcvphy_reg (phy, option, INFO_PHYS_CC1350);
    26f6:	f7ff f9b1 	bl	1a5c <tcvphy_reg>
    26fa:	4b28      	ldr	r3, [pc, #160]	; (279c <phys_cc1350+0x148>)
	LEDI (0, 0);
	LEDI (1, 0);
	LEDI (2, 0);

#if DIAG_MESSAGES
	diag ("CC1350: %d, %d, %d", RADIO_BITRATE_INDEX, RADIO_DEFAULT_POWER,
    26fc:	2207      	movs	r2, #7
    26fe:	2102      	movs	r1, #2
	qevent = tcvphy_reg (phy, option, INFO_PHYS_CC1350);
    2700:	6018      	str	r0, [r3, #0]
	diag ("CC1350: %d, %d, %d", RADIO_BITRATE_INDEX, RADIO_DEFAULT_POWER,
    2702:	462b      	mov	r3, r5
    2704:	4826      	ldr	r0, [pc, #152]	; (27a0 <phys_cc1350+0x14c>)
    2706:	f7fe fea7 	bl	1458 <diag>
		RADIO_DEFAULT_CHANNEL);
#endif

	// Install the backoff timer
	utimer_add (&bckf_timer);
    270a:	4826      	ldr	r0, [pc, #152]	; (27a4 <phys_cc1350+0x150>)
    270c:	f7fe fc3c 	bl	f88 <utimer_add>

	// Start the driver process
	drvprcs = runthread (cc1350_driver);
    2710:	4629      	mov	r1, r5
    2712:	4825      	ldr	r0, [pc, #148]	; (27a8 <phys_cc1350+0x154>)
    2714:	f7fe fe7a 	bl	140c <__pi_fork>
    2718:	4b24      	ldr	r3, [pc, #144]	; (27ac <phys_cc1350+0x158>)
    271a:	6018      	str	r0, [r3, #0]

#if (RADIO_OPTIONS & RADIO_OPTION_NOCHECKS) == 0
	if (drvprcs == 0)
    271c:	b920      	cbnz	r0, 2728 <phys_cc1350+0xd4>
		syserror (ERESOURCE, "cc13");
    271e:	2004      	movs	r0, #4
    2720:	4918      	ldr	r1, [pc, #96]	; (2784 <phys_cc1350+0x130>)
    2722:	e79f      	b.n	2664 <phys_cc1350+0x10>
    2724:	4605      	mov	r5, r0
    2726:	e7c0      	b.n	26aa <phys_cc1350+0x56>

#if RADIO_DEFAULT_POWER <= 7
#if (RADIO_OPTIONS & RADIO_OPTION_PXOPTIONS)
	cmd_sp.txPower =
#endif
	RF_cmdPropRadioDivSetup.txPower = patable [RADIO_DEFAULT_POWER];
    2728:	f64b 432b 	movw	r3, #48171	; 0xbc2b
    272c:	4c20      	ldr	r4, [pc, #128]	; (27b0 <phys_cc1350+0x15c>)
	RF_cmdPropRadioDivSetup.symbolRate.rateWord = ratable [vrate - 1] . rw;
    272e:	4921      	ldr	r1, [pc, #132]	; (27b4 <phys_cc1350+0x160>)
	RF_cmdPropRadioDivSetup.txPower = patable [RADIO_DEFAULT_POWER];
    2730:	8363      	strh	r3, [r4, #26]
	RF_cmdPropRadioDivSetup.symbolRate.preScale = ratable [vrate - 1] . ps;
    2732:	4b21      	ldr	r3, [pc, #132]	; (27b8 <phys_cc1350+0x164>)
    2734:	781a      	ldrb	r2, [r3, #0]
    2736:	3a01      	subs	r2, #1
	RF_cmdPropRadioDivSetup.symbolRate.rateWord = ratable [vrate - 1] . rw;
    2738:	eb01 0382 	add.w	r3, r1, r2, lsl #2
	RF_cmdPropRadioDivSetup.symbolRate.preScale = ratable [vrate - 1] . ps;
    273c:	8858      	ldrh	r0, [r3, #2]
    273e:	f831 3022 	ldrh.w	r3, [r1, r2, lsl #2]
    2742:	6922      	ldr	r2, [r4, #16]
    2744:	f003 030f 	and.w	r3, r3, #15
    2748:	f022 52ff 	bic.w	r2, r2, #534773760	; 0x1fe00000
    274c:	f422 12ff 	bic.w	r2, r2, #2088960	; 0x1fe000
    2750:	f422 52f8 	bic.w	r2, r2, #7936	; 0x1f00
    2754:	f022 020f 	bic.w	r2, r2, #15
    2758:	ea43 2300 	orr.w	r3, r3, r0, lsl #8
    275c:	4313      	orrs	r3, r2
    275e:	6123      	str	r3, [r4, #16]
#endif

#if RADIO_BITRATE_INDEX > 0
	plugrt ();
#endif
	plugch ();
    2760:	f7ff fbc2 	bl	1ee8 <plugch>

	// Make sure, prop mode is selected in PRCM (this is supposed to be
	// the default)
	HWREG (PRCM_BASE + PRCM_O_RFCMODESEL) =  RF_MODE_PROPRIETARY_SUB_1;
    2764:	4b15      	ldr	r3, [pc, #84]	; (27bc <phys_cc1350+0x168>)

	// Precompute the Trim
	RFCRTrim ((rfc_radioOp_t*)&RF_cmdPropRadioDivSetup);
    2766:	4620      	mov	r0, r4
	HWREG (PRCM_BASE + PRCM_O_RFCMODESEL) =  RF_MODE_PROPRIETARY_SUB_1;
    2768:	f8c3 51d0 	str.w	r5, [r3, #464]	; 0x1d0
	RFCRTrim ((rfc_radioOp_t*)&RF_cmdPropRadioDivSetup);
    276c:	f000 fe22 	bl	33b4 <NOROM_RFCRTrim>
       	RFCRfTrimRead ((rfc_radioOp_t*)&RF_cmdPropRadioDivSetup,
    2770:	4620      	mov	r0, r4
    2772:	4913      	ldr	r1, [pc, #76]	; (27c0 <phys_cc1350+0x16c>)
    2774:	f000 fd76 	bl	3264 <NOROM_RFCRfTrimRead>
			(rfTrim_t*)&rfTrim);

	// Direct all doorbell interrupts permanently to CPE0
	HWREG (RFC_DBELL_BASE + RFC_DBELL_O_RFCPEISL) = 0;
    2778:	4b12      	ldr	r3, [pc, #72]	; (27c4 <phys_cc1350+0x170>)
    277a:	619d      	str	r5, [r3, #24]
}
    277c:	e8bd 8ff8 	ldmia.w	sp!, {r3, r4, r5, r6, r7, r8, r9, sl, fp, pc}
    2780:	200001e4 	andcs	r0, r0, r4, ror #3
    2784:	00004476 	andeq	r4, r0, r6, ror r4
    2788:	0000447b 	andeq	r4, r0, fp, ror r4
    278c:	20000078 	andcs	r0, r0, r8, ror r0
    2790:	00001f09 	andeq	r1, r0, r9, lsl #30
    2794:	200001f8 	strdcs	r0, [r0], -r8
    2798:	200001dc 	ldrdcs	r0, [r0], -ip
    279c:	200001e0 	andcs	r0, r0, r0, ror #3
    27a0:	00004483 	andeq	r4, r0, r3, lsl #9
    27a4:	200001ca 	andcs	r0, r0, sl, asr #3
    27a8:	00002409 	andeq	r2, r0, r9, lsl #8
    27ac:	200001d0 	ldrdcs	r0, [r0], -r0	; <UNPREDICTABLE>
    27b0:	20000050 	andcs	r0, r0, r0, asr r0
    27b4:	00004de8 	andeq	r4, r0, r8, ror #27
    27b8:	20000036 	andcs	r0, r0, r6, lsr r0
    27bc:	40082000 	andmi	r2, r8, r0
    27c0:	200001e8 	andcs	r0, r0, r8, ror #3
    27c4:	40041000 	andmi	r1, r4, r0

000027c8 <tcv_clo_null>:
    27c8:	b510      	push	{r4, lr}
    27ca:	4a07      	ldr	r2, [pc, #28]	; (27e8 <tcv_clo_null+0x20>)
    27cc:	4603      	mov	r3, r0
    27ce:	6812      	ldr	r2, [r2, #0]
    27d0:	f04f 30ff 	mov.w	r0, #4294967295	; 0xffffffff
    27d4:	b132      	cbz	r2, 27e4 <tcv_clo_null+0x1c>
    27d6:	f852 4023 	ldr.w	r4, [r2, r3, lsl #2]
    27da:	428c      	cmp	r4, r1
    27dc:	bf04      	itt	eq
    27de:	f842 0023 	streq.w	r0, [r2, r3, lsl #2]
    27e2:	2000      	moveq	r0, #0
    27e4:	bd10      	pop	{r4, pc}
    27e6:	bf00      	nop
    27e8:	20000208 	andcs	r0, r0, r8, lsl #4

000027ec <tcv_rcv_null>:
    27ec:	4907      	ldr	r1, [pc, #28]	; (280c <tcv_rcv_null+0x20>)
    27ee:	9a00      	ldr	r2, [sp, #0]
    27f0:	6809      	ldr	r1, [r1, #0]
    27f2:	b909      	cbnz	r1, 27f8 <tcv_rcv_null+0xc>
    27f4:	2000      	movs	r0, #0
    27f6:	4770      	bx	lr
    27f8:	f851 1020 	ldr.w	r1, [r1, r0, lsl #2]
    27fc:	6019      	str	r1, [r3, #0]
    27fe:	3101      	adds	r1, #1
    2800:	d0f8      	beq.n	27f4 <tcv_rcv_null+0x8>
    2802:	2300      	movs	r3, #0
    2804:	2002      	movs	r0, #2
    2806:	8053      	strh	r3, [r2, #2]
    2808:	8013      	strh	r3, [r2, #0]
    280a:	4770      	bx	lr
    280c:	20000208 	andcs	r0, r0, r8, lsl #4

00002810 <tcv_frm_null>:
    2810:	2000      	movs	r0, #0
    2812:	8048      	strh	r0, [r1, #2]
    2814:	8008      	strh	r0, [r1, #0]
    2816:	4770      	bx	lr

00002818 <tcv_out_null>:
    2818:	2004      	movs	r0, #4
    281a:	4770      	bx	lr

0000281c <tcv_xmt_null>:
    281c:	2001      	movs	r0, #1
    281e:	4770      	bx	lr

00002820 <tcv_ope_null>:
    2820:	b570      	push	{r4, r5, r6, lr}
    2822:	4e0f      	ldr	r6, [pc, #60]	; (2860 <tcv_ope_null+0x40>)
    2824:	4604      	mov	r4, r0
    2826:	6833      	ldr	r3, [r6, #0]
    2828:	460d      	mov	r5, r1
    282a:	b94b      	cbnz	r3, 2840 <tcv_ope_null+0x20>
    282c:	200c      	movs	r0, #12
    282e:	f7fe fd99 	bl	1364 <__pi_malloc>
    2832:	6030      	str	r0, [r6, #0]
    2834:	b178      	cbz	r0, 2856 <tcv_ope_null+0x36>
    2836:	f04f 33ff 	mov.w	r3, #4294967295	; 0xffffffff
    283a:	e9c0 3300 	strd	r3, r3, [r0]
    283e:	6083      	str	r3, [r0, #8]
    2840:	6833      	ldr	r3, [r6, #0]
    2842:	f853 2024 	ldr.w	r2, [r3, r4, lsl #2]
    2846:	3201      	adds	r2, #1
    2848:	bf06      	itte	eq
    284a:	f843 5024 	streq.w	r5, [r3, r4, lsl #2]
    284e:	2000      	moveq	r0, #0
    2850:	f04f 30ff 	movne.w	r0, #4294967295	; 0xffffffff
    2854:	bd70      	pop	{r4, r5, r6, pc}
    2856:	2006      	movs	r0, #6
    2858:	4902      	ldr	r1, [pc, #8]	; (2864 <tcv_ope_null+0x44>)
    285a:	f7fd fe17 	bl	48c <__pi_syserror>
    285e:	bf00      	nop
    2860:	20000208 	andcs	r0, r0, r8, lsl #4
    2864:	00004df4 	strdeq	r4, [r0], -r4	; <UNPREDICTABLE>

00002868 <outc.0>:

	char c;
	word d;

	void outc (word c) {
		if (res && (d < n))
    2868:	f8dc 2000 	ldr.w	r2, [ip]
    286c:	b132      	cbz	r2, 287c <outc.0+0x14>
    286e:	f8bc 3006 	ldrh.w	r3, [ip, #6]
    2872:	f8bc 1004 	ldrh.w	r1, [ip, #4]
    2876:	4299      	cmp	r1, r3
			// Store if there is a buffer ...
			res [d] = (char) c;
    2878:	bf88      	it	hi
    287a:	54d0      	strbhi	r0, [r2, r3]
		// ... otherwise just count
		d++;
    287c:	f8bc 3006 	ldrh.w	r3, [ip, #6]
    2880:	3301      	adds	r3, #1
    2882:	f8ac 3006 	strh.w	r3, [ip, #6]
	};
    2886:	4770      	bx	lr

00002888 <__pi_vfparse>:
word __pi_vfparse (char *res, word n, const char *fm, va_list ap) {
    2888:	e92d 47ff 	stmdb	sp!, {r0, r1, r2, r3, r4, r5, r6, r7, r8, r9, sl, lr}
    288c:	461c      	mov	r4, r3
    288e:	ab0c      	add	r3, sp, #48	; 0x30
    2890:	9303      	str	r3, [sp, #12]
			if (i == 0) \
				break; \
			c = (char) (val / i); \
		}

	d = 0;
    2892:	2300      	movs	r3, #0
				if (c == 'd' && (val & 0x8000) != 0) {
					/* Minus */
					outc ('-');
					val = (~val) + 1;
				}
				enci (10000);
    2894:	260a      	movs	r6, #10
						[ (val >> i) & 0xf ]);
    2896:	4f83      	ldr	r7, [pc, #524]	; (2aa4 <__pi_vfparse+0x21c>)
word __pi_vfparse (char *res, word n, const char *fm, va_list ap) {
    2898:	9001      	str	r0, [sp, #4]
    289a:	f8ad 1008 	strh.w	r1, [sp, #8]
	d = 0;
    289e:	f8ad 300a 	strh.w	r3, [sp, #10]
		c = *fm++;
    28a2:	f892 9000 	ldrb.w	r9, [r2]
		if (c == '\\') {
    28a6:	f1b9 0f5c 	cmp.w	r9, #92	; 0x5c
    28aa:	d113      	bne.n	28d4 <__pi_vfparse+0x4c>
			if ((c = *fm++) == '\0') {
    28ac:	f892 9001 	ldrb.w	r9, [r2, #1]
    28b0:	1c95      	adds	r5, r2, #2
				outc ('\\');
    28b2:	f10d 0c04 	add.w	ip, sp, #4
			if ((c = *fm++) == '\0') {
    28b6:	f1b9 0f00 	cmp.w	r9, #0
    28ba:	d106      	bne.n	28ca <__pi_vfparse+0x42>
				outc ('\\');
    28bc:	205c      	movs	r0, #92	; 0x5c
    28be:	f7ff ffd3 	bl	2868 <outc.0>
					goto Ret;
			}
		} else {
			// Regular character
Eol:
			outc (c);
    28c2:	4648      	mov	r0, r9
    28c4:	f10d 0c04 	add.w	ip, sp, #4
    28c8:	e022      	b.n	2910 <__pi_vfparse+0x88>
			outc (c);
    28ca:	4648      	mov	r0, r9
				outc (val);
    28cc:	f7ff ffcc 	bl	2868 <outc.0>
				val = (word) va_arg (ap, aword);
    28d0:	462a      	mov	r2, r5
    28d2:	e7e6      	b.n	28a2 <__pi_vfparse+0x1a>
		if (c == '%') {
    28d4:	f1b9 0f25 	cmp.w	r9, #37	; 0x25
    28d8:	f040 80e1 	bne.w	2a9e <__pi_vfparse+0x216>
			c = *fm++;
    28dc:	f892 8001 	ldrb.w	r8, [r2, #1]
    28e0:	1c95      	adds	r5, r2, #2
			switch (c) {
    28e2:	f1b8 0f73 	cmp.w	r8, #115	; 0x73
    28e6:	f000 80cc 	beq.w	2a82 <__pi_vfparse+0x1fa>
    28ea:	d81a      	bhi.n	2922 <__pi_vfparse+0x9a>
    28ec:	f1b8 0f64 	cmp.w	r8, #100	; 0x64
    28f0:	d032      	beq.n	2958 <__pi_vfparse+0xd0>
    28f2:	f1b8 0f6c 	cmp.w	r8, #108	; 0x6c
    28f6:	d066      	beq.n	29c6 <__pi_vfparse+0x13e>
    28f8:	f1b8 0f63 	cmp.w	r8, #99	; 0x63
    28fc:	f000 80bb 	beq.w	2a76 <__pi_vfparse+0x1ee>
				outc ('%');
    2900:	2025      	movs	r0, #37	; 0x25
    2902:	f10d 0c04 	add.w	ip, sp, #4
    2906:	f7ff ffaf 	bl	2868 <outc.0>
				outc (c);
    290a:	4640      	mov	r0, r8
    290c:	f10d 0c04 	add.w	ip, sp, #4
			outc (c);
    2910:	f7ff ffaa 	bl	2868 <outc.0>
			if (c == '\0')
    2914:	2800      	cmp	r0, #0
    2916:	d1db      	bne.n	28d0 <__pi_vfparse+0x48>
Ret:
				return d;
    2918:	f8bd 000a 	ldrh.w	r0, [sp, #10]
		}
	}
}
    291c:	b004      	add	sp, #16
    291e:	e8bd 87f0 	ldmia.w	sp!, {r4, r5, r6, r7, r8, r9, sl, pc}
			switch (c) {
    2922:	f1b8 0f75 	cmp.w	r8, #117	; 0x75
    2926:	d017      	beq.n	2958 <__pi_vfparse+0xd0>
    2928:	f1b8 0f78 	cmp.w	r8, #120	; 0x78
    292c:	d1e8      	bne.n	2900 <__pi_vfparse+0x78>
				for (i = 12; ; i -= 4) {
    292e:	f04f 080c 	mov.w	r8, #12
				val = (word) va_arg (ap, aword);
    2932:	f854 3b04 	ldr.w	r3, [r4], #4
						[ (val >> i) & 0xf ]);
    2936:	fa1f f983 	uxth.w	r9, r3
    293a:	fa49 f308 	asr.w	r3, r9, r8
    293e:	f003 030f 	and.w	r3, r3, #15
					outc (__pi_hex_enc_table
    2942:	5cf8      	ldrb	r0, [r7, r3]
    2944:	f10d 0c04 	add.w	ip, sp, #4
    2948:	f7ff ff8e 	bl	2868 <outc.0>
					if (i == 0)
    294c:	f1b8 0f00 	cmp.w	r8, #0
    2950:	d0be      	beq.n	28d0 <__pi_vfparse+0x48>
				for (i = 12; ; i -= 4) {
    2952:	f1a8 0804 	sub.w	r8, r8, #4
					outc (__pi_hex_enc_table
    2956:	e7f0      	b.n	293a <__pi_vfparse+0xb2>
				val = (word) va_arg (ap, aword);
    2958:	f854 3b04 	ldr.w	r3, [r4], #4
				if (c == 'd' && (val & 0x8000) != 0) {
    295c:	f1b8 0f64 	cmp.w	r8, #100	; 0x64
				val = (word) va_arg (ap, aword);
    2960:	fa1f f983 	uxth.w	r9, r3
				if (c == 'd' && (val & 0x8000) != 0) {
    2964:	d10a      	bne.n	297c <__pi_vfparse+0xf4>
    2966:	041b      	lsls	r3, r3, #16
    2968:	d508      	bpl.n	297c <__pi_vfparse+0xf4>
					outc ('-');
    296a:	202d      	movs	r0, #45	; 0x2d
    296c:	f10d 0c04 	add.w	ip, sp, #4
    2970:	f7ff ff7a 	bl	2868 <outc.0>
					val = (~val) + 1;
    2974:	f1c9 0900 	rsb	r9, r9, #0
    2978:	fa1f f989 	uxth.w	r9, r9
				for (i = 12; ; i -= 4) {
    297c:	2305      	movs	r3, #5
				enci (10000);
    297e:	f242 7810 	movw	r8, #10000	; 0x2710
    2982:	fbb9 f0f8 	udiv	r0, r9, r8
    2986:	f010 00ff 	ands.w	r0, r0, #255	; 0xff
    298a:	d103      	bne.n	2994 <__pi_vfparse+0x10c>
    298c:	3b01      	subs	r3, #1
    298e:	d117      	bne.n	29c0 <__pi_vfparse+0x138>
    2990:	f04f 0801 	mov.w	r8, #1
    2994:	fa1f fa80 	uxth.w	sl, r0
    2998:	f10d 0c04 	add.w	ip, sp, #4
    299c:	3030      	adds	r0, #48	; 0x30
    299e:	f7ff ff63 	bl	2868 <outc.0>
    29a2:	fbb8 f3f6 	udiv	r3, r8, r6
    29a6:	fb08 991a 	mls	r9, r8, sl, r9
    29aa:	f1b8 0f09 	cmp.w	r8, #9
    29ae:	fa1f f989 	uxth.w	r9, r9
    29b2:	b29b      	uxth	r3, r3
    29b4:	d98c      	bls.n	28d0 <__pi_vfparse+0x48>
    29b6:	fbb9 f0f3 	udiv	r0, r9, r3
    29ba:	4698      	mov	r8, r3
    29bc:	b2c0      	uxtb	r0, r0
    29be:	e7e9      	b.n	2994 <__pi_vfparse+0x10c>
    29c0:	fbb8 f8f6 	udiv	r8, r8, r6
    29c4:	e7dd      	b.n	2982 <__pi_vfparse+0xfa>
				c = *fm;
    29c6:	7893      	ldrb	r3, [r2, #2]
				if (c == 'd' || c == 'u') {
    29c8:	2b64      	cmp	r3, #100	; 0x64
    29ca:	d001      	beq.n	29d0 <__pi_vfparse+0x148>
    29cc:	2b75      	cmp	r3, #117	; 0x75
    29ce:	d132      	bne.n	2a36 <__pi_vfparse+0x1ae>
					if (c == 'd' &&
    29d0:	2b64      	cmp	r3, #100	; 0x64
					val = va_arg (ap, lword);
    29d2:	f854 ab04 	ldr.w	sl, [r4], #4
					fm++;
    29d6:	f102 0503 	add.w	r5, r2, #3
					if (c == 'd' &&
    29da:	d109      	bne.n	29f0 <__pi_vfparse+0x168>
    29dc:	f1ba 0f00 	cmp.w	sl, #0
    29e0:	da06      	bge.n	29f0 <__pi_vfparse+0x168>
						outc ('-');
    29e2:	202d      	movs	r0, #45	; 0x2d
    29e4:	f10d 0c04 	add.w	ip, sp, #4
    29e8:	f7ff ff3e 	bl	2868 <outc.0>
						val = (~val) + 1;
    29ec:	f1ca 0a00 	rsb	sl, sl, #0
				enci (10000);
    29f0:	230a      	movs	r3, #10
					enci (1000000000UL);
    29f2:	f8df 80b4 	ldr.w	r8, [pc, #180]	; 2aa8 <__pi_vfparse+0x220>
    29f6:	fbba f9f8 	udiv	r9, sl, r8
    29fa:	f019 09ff 	ands.w	r9, r9, #255	; 0xff
    29fe:	d103      	bne.n	2a08 <__pi_vfparse+0x180>
    2a00:	3b01      	subs	r3, #1
    2a02:	d115      	bne.n	2a30 <__pi_vfparse+0x1a8>
    2a04:	f04f 0801 	mov.w	r8, #1
    2a08:	f10d 0c04 	add.w	ip, sp, #4
    2a0c:	f109 0030 	add.w	r0, r9, #48	; 0x30
    2a10:	f7ff ff2a 	bl	2868 <outc.0>
    2a14:	f1b8 0f09 	cmp.w	r8, #9
    2a18:	fbb8 f3f6 	udiv	r3, r8, r6
    2a1c:	fb08 aa19 	mls	sl, r8, r9, sl
    2a20:	f67f af56 	bls.w	28d0 <__pi_vfparse+0x48>
    2a24:	fbba f9f3 	udiv	r9, sl, r3
    2a28:	4698      	mov	r8, r3
    2a2a:	fa5f f989 	uxtb.w	r9, r9
    2a2e:	e7eb      	b.n	2a08 <__pi_vfparse+0x180>
    2a30:	fbb8 f8f6 	udiv	r8, r8, r6
    2a34:	e7df      	b.n	29f6 <__pi_vfparse+0x16e>
				} else if (c == 'x') {
    2a36:	2b78      	cmp	r3, #120	; 0x78
    2a38:	d114      	bne.n	2a64 <__pi_vfparse+0x1dc>
					for (i = 28; ; i -= 4) {
    2a3a:	f04f 081c 	mov.w	r8, #28
					val = va_arg (ap, lword);
    2a3e:	f854 9b04 	ldr.w	r9, [r4], #4
					fm++;
    2a42:	1cd5      	adds	r5, r2, #3
							[ (val >> i) & 0xf ]);
    2a44:	fa29 f308 	lsr.w	r3, r9, r8
    2a48:	f003 030f 	and.w	r3, r3, #15
						outc (__pi_hex_enc_table
    2a4c:	5cf8      	ldrb	r0, [r7, r3]
    2a4e:	f10d 0c04 	add.w	ip, sp, #4
    2a52:	f7ff ff09 	bl	2868 <outc.0>
						if (i == 0)
    2a56:	f1b8 0f00 	cmp.w	r8, #0
    2a5a:	f43f af39 	beq.w	28d0 <__pi_vfparse+0x48>
					for (i = 28; ; i -= 4) {
    2a5e:	f1a8 0804 	sub.w	r8, r8, #4
						outc (__pi_hex_enc_table
    2a62:	e7ef      	b.n	2a44 <__pi_vfparse+0x1bc>
					outc ('%');
    2a64:	4648      	mov	r0, r9
    2a66:	f10d 0c04 	add.w	ip, sp, #4
    2a6a:	f7ff fefd 	bl	2868 <outc.0>
					outc ('l');
    2a6e:	4640      	mov	r0, r8
    2a70:	f10d 0c04 	add.w	ip, sp, #4
    2a74:	e72a      	b.n	28cc <__pi_vfparse+0x44>
				val = (word) va_arg (ap, aword);
    2a76:	f854 0b04 	ldr.w	r0, [r4], #4
				outc (val);
    2a7a:	f10d 0c04 	add.w	ip, sp, #4
    2a7e:	b280      	uxth	r0, r0
    2a80:	e724      	b.n	28cc <__pi_vfparse+0x44>
				while (*st != '\0') {
    2a82:	f854 3b04 	ldr.w	r3, [r4], #4
    2a86:	f103 38ff 	add.w	r8, r3, #4294967295	; 0xffffffff
    2a8a:	f818 0f01 	ldrb.w	r0, [r8, #1]!
    2a8e:	2800      	cmp	r0, #0
    2a90:	f43f af1e 	beq.w	28d0 <__pi_vfparse+0x48>
					outc (*st);
    2a94:	f10d 0c04 	add.w	ip, sp, #4
    2a98:	f7ff fee6 	bl	2868 <outc.0>
					st++;
    2a9c:	e7f5      	b.n	2a8a <__pi_vfparse+0x202>
		c = *fm++;
    2a9e:	1c55      	adds	r5, r2, #1
    2aa0:	e70f      	b.n	28c2 <__pi_vfparse+0x3a>
    2aa2:	bf00      	nop
    2aa4:	0000437d 	andeq	r4, r0, sp, ror r3
    2aa8:	3b9aca00 	blcc	fe6b52b0 <_estack+0xde6b02b0>

00002aac <vform>:

char *vform (char *res, const char *fm, va_list aq) {
    2aac:	e92d 41f0 	stmdb	sp!, {r4, r5, r6, r7, r8, lr}
    2ab0:	460e      	mov	r6, r1
    2ab2:	4617      	mov	r7, r2

	word fml, d;

	if (res != NULL) {
    2ab4:	4604      	mov	r4, r0
    2ab6:	b140      	cbz	r0, 2aca <vform+0x1e>
		// We trust the caller
		__pi_vfparse (res, MAX_WORD, fm, aq);
    2ab8:	4613      	mov	r3, r2
    2aba:	460a      	mov	r2, r1
    2abc:	f64f 71ff 	movw	r1, #65535	; 0xffff
    2ac0:	f7ff fee2 	bl	2888 <__pi_vfparse>
		ufree (res);
		fml = d;
		goto Again;
	}
	return res;
}
    2ac4:	4620      	mov	r0, r4
    2ac6:	e8bd 81f0 	ldmia.w	sp!, {r4, r5, r6, r7, r8, pc}
	fml = strlen (fm) + 17;
    2aca:	4608      	mov	r0, r1
    2acc:	f7fe fb5a 	bl	1184 <__pi_strlen>
    2ad0:	f100 0511 	add.w	r5, r0, #17
    2ad4:	b2ad      	uxth	r5, r5
	if ((res = (char*) umalloc (fml)) == NULL)
    2ad6:	4628      	mov	r0, r5
    2ad8:	f7fe fc44 	bl	1364 <__pi_malloc>
    2adc:	4604      	mov	r4, r0
    2ade:	2800      	cmp	r0, #0
    2ae0:	d0f0      	beq.n	2ac4 <vform+0x18>
